
TWI-aka-I2C.elf:     file format elf32-avr

Sections:
Idx Name          Size      VMA       LMA       File off  Algn
  0 .text         00001972  00000000  00000000  00000094  2**1
                  CONTENTS, ALLOC, LOAD, READONLY, CODE
  1 .data         00000062  00800060  00001972  00001a06  2**0
                  CONTENTS, ALLOC, LOAD, DATA
  2 .bss          000000a1  008000c2  008000c2  00001a68  2**0
                  ALLOC
  3 .comment      00000030  00000000  00000000  00001a68  2**0
                  CONTENTS, READONLY
  4 .note.gnu.avr.deviceinfo 0000003c  00000000  00000000  00001a98  2**2
                  CONTENTS, READONLY
  5 .debug_aranges 000000f8  00000000  00000000  00001ad4  2**0
                  CONTENTS, READONLY, DEBUGGING
  6 .debug_info   00002493  00000000  00000000  00001bcc  2**0
                  CONTENTS, READONLY, DEBUGGING
  7 .debug_abbrev 00000a0b  00000000  00000000  0000405f  2**0
                  CONTENTS, READONLY, DEBUGGING
  8 .debug_line   00001190  00000000  00000000  00004a6a  2**0
                  CONTENTS, READONLY, DEBUGGING
  9 .debug_frame  000002c8  00000000  00000000  00005bfc  2**2
                  CONTENTS, READONLY, DEBUGGING
 10 .debug_str    0000064b  00000000  00000000  00005ec4  2**0
                  CONTENTS, READONLY, DEBUGGING
 11 .debug_loc    00001654  00000000  00000000  0000650f  2**0
                  CONTENTS, READONLY, DEBUGGING
 12 .debug_ranges 000000c8  00000000  00000000  00007b63  2**0
                  CONTENTS, READONLY, DEBUGGING

Disassembly of section .text:

00000000 <__vectors>:
       0:	1f c4       	rjmp	.+2110   	; 0x840 <__ctors_end>
       2:	39 c4       	rjmp	.+2162   	; 0x876 <__bad_interrupt>
       4:	38 c4       	rjmp	.+2160   	; 0x876 <__bad_interrupt>
       6:	37 c4       	rjmp	.+2158   	; 0x876 <__bad_interrupt>
       8:	36 c4       	rjmp	.+2156   	; 0x876 <__bad_interrupt>
       a:	35 c4       	rjmp	.+2154   	; 0x876 <__bad_interrupt>
       c:	a9 c6       	rjmp	.+3410   	; 0xd60 <__vector_6>
       e:	33 c4       	rjmp	.+2150   	; 0x876 <__bad_interrupt>
      10:	32 c4       	rjmp	.+2148   	; 0x876 <__bad_interrupt>
      12:	1d c7       	rjmp	.+3642   	; 0xe4e <__vector_9>
      14:	30 c4       	rjmp	.+2144   	; 0x876 <__bad_interrupt>
      16:	2f c4       	rjmp	.+2142   	; 0x876 <__bad_interrupt>
      18:	2e c4       	rjmp	.+2140   	; 0x876 <__bad_interrupt>
      1a:	2d c4       	rjmp	.+2138   	; 0x876 <__bad_interrupt>
      1c:	2c c4       	rjmp	.+2136   	; 0x876 <__bad_interrupt>
      1e:	2b c4       	rjmp	.+2134   	; 0x876 <__bad_interrupt>
      20:	2a c4       	rjmp	.+2132   	; 0x876 <__bad_interrupt>
      22:	2a c6       	rjmp	.+3156   	; 0xc78 <__vector_17>
      24:	28 c4       	rjmp	.+2128   	; 0x876 <__bad_interrupt>

00000026 <__trampolines_end>:
	...
     18e:	00 00       	nop
     190:	08 08       	sbc	r0, r8
     192:	08 08       	sbc	r0, r8
     194:	00 00       	nop
     196:	00 60       	ori	r16, 0x00	; 0
     198:	60 00       	.word	0x0060	; ????
	...
     1a6:	00 3e       	cpi	r16, 0xE0	; 224
     1a8:	61 51       	subi	r22, 0x11	; 17
     1aa:	49 45       	sbci	r20, 0x59	; 89
     1ac:	3e 00       	.word	0x003e	; ????
     1ae:	00 40       	sbci	r16, 0x00	; 0
     1b0:	42 7f       	andi	r20, 0xF2	; 242
     1b2:	40 40       	sbci	r20, 0x00	; 0
     1b4:	00 00       	nop
     1b6:	00 62       	ori	r16, 0x20	; 32
     1b8:	51 49       	sbci	r21, 0x91	; 145
     1ba:	49 49       	sbci	r20, 0x99	; 153
     1bc:	46 00       	.word	0x0046	; ????
     1be:	00 22       	and	r0, r16
     1c0:	41 41       	sbci	r20, 0x11	; 17
     1c2:	49 49       	sbci	r20, 0x99	; 153
     1c4:	36 00       	.word	0x0036	; ????
     1c6:	00 18       	sub	r0, r0
     1c8:	14 12       	cpse	r1, r20
     1ca:	7f 10       	cpse	r7, r15
     1cc:	10 00       	.word	0x0010	; ????
     1ce:	00 27       	eor	r16, r16
     1d0:	49 49       	sbci	r20, 0x99	; 153
     1d2:	49 49       	sbci	r20, 0x99	; 153
     1d4:	31 00       	.word	0x0031	; ????
     1d6:	00 3e       	cpi	r16, 0xE0	; 224
     1d8:	49 49       	sbci	r20, 0x99	; 153
     1da:	49 49       	sbci	r20, 0x99	; 153
     1dc:	32 00       	.word	0x0032	; ????
     1de:	00 01       	movw	r0, r0
     1e0:	01 71       	andi	r16, 0x11	; 17
     1e2:	09 05       	cpc	r16, r9
     1e4:	03 00       	.word	0x0003	; ????
     1e6:	00 36       	cpi	r16, 0x60	; 96
     1e8:	49 49       	sbci	r20, 0x99	; 153
     1ea:	49 49       	sbci	r20, 0x99	; 153
     1ec:	36 00       	.word	0x0036	; ????
     1ee:	00 26       	eor	r0, r16
     1f0:	49 49       	sbci	r20, 0x99	; 153
     1f2:	49 49       	sbci	r20, 0x99	; 153
     1f4:	3e 00       	.word	0x003e	; ????
     1f6:	00 00       	nop
     1f8:	00 66       	ori	r16, 0x60	; 96
     1fa:	66 00       	.word	0x0066	; ????
	...
     218:	00 41       	sbci	r16, 0x10	; 16
     21a:	22 14       	cp	r2, r2
     21c:	08 00       	.word	0x0008	; ????
	...
     626:	00 7e       	andi	r16, 0xE0	; 224
     628:	09 09       	sbc	r16, r9
     62a:	09 09       	sbc	r16, r9
     62c:	7e 00       	.word	0x007e	; ????
     62e:	00 7f       	andi	r16, 0xF0	; 240
     630:	49 49       	sbci	r20, 0x99	; 153
     632:	49 49       	sbci	r20, 0x99	; 153
     634:	31 00       	.word	0x0031	; ????
     636:	00 7f       	andi	r16, 0xF0	; 240
     638:	49 49       	sbci	r20, 0x99	; 153
     63a:	49 49       	sbci	r20, 0x99	; 153
     63c:	76 00       	.word	0x0076	; ????
     63e:	00 7f       	andi	r16, 0xF0	; 240
     640:	01 01       	movw	r0, r2
     642:	01 01       	movw	r0, r2
     644:	01 00       	.word	0x0001	; ????
     646:	00 60       	ori	r16, 0x00	; 0
     648:	38 26       	eor	r3, r24
     64a:	21 3f       	cpi	r18, 0xF1	; 241
     64c:	60 00       	.word	0x0060	; ????
     64e:	00 7f       	andi	r16, 0xF0	; 240
     650:	49 49       	sbci	r20, 0x99	; 153
     652:	49 49       	sbci	r20, 0x99	; 153
     654:	49 00       	.word	0x0049	; ????
     656:	00 77       	andi	r16, 0x70	; 112
     658:	08 7f       	andi	r16, 0xF8	; 248
     65a:	08 77       	andi	r16, 0x78	; 120
     65c:	00 00       	nop
     65e:	00 22       	and	r0, r16
     660:	41 41       	sbci	r20, 0x11	; 17
     662:	41 49       	sbci	r20, 0x91	; 145
     664:	36 00       	.word	0x0036	; ????
     666:	00 7f       	andi	r16, 0xF0	; 240
     668:	20 10       	cpse	r2, r0
     66a:	08 04       	cpc	r0, r8
     66c:	7f 00       	.word	0x007f	; ????
     66e:	00 7f       	andi	r16, 0xF0	; 240
     670:	20 11       	cpse	r18, r0
     672:	09 04       	cpc	r0, r9
     674:	7f 00       	.word	0x007f	; ????
     676:	00 7f       	andi	r16, 0xF0	; 240
     678:	08 08       	sbc	r0, r8
     67a:	14 63       	ori	r17, 0x34	; 52
     67c:	00 00       	nop
     67e:	00 7c       	andi	r16, 0xC0	; 192
     680:	02 01       	movw	r0, r4
     682:	01 01       	movw	r0, r2
     684:	7f 00       	.word	0x007f	; ????
     686:	00 7f       	andi	r16, 0xF0	; 240
     688:	02 04       	cpc	r0, r2
     68a:	02 7f       	andi	r16, 0xF2	; 242
     68c:	00 00       	nop
     68e:	00 7f       	andi	r16, 0xF0	; 240
     690:	08 08       	sbc	r0, r8
     692:	08 08       	sbc	r0, r8
     694:	7f 00       	.word	0x007f	; ????
     696:	00 3e       	cpi	r16, 0xE0	; 224
     698:	41 41       	sbci	r20, 0x11	; 17
     69a:	41 41       	sbci	r20, 0x11	; 17
     69c:	3e 00       	.word	0x003e	; ????
     69e:	00 7f       	andi	r16, 0xF0	; 240
     6a0:	01 01       	movw	r0, r2
     6a2:	01 01       	movw	r0, r2
     6a4:	7f 00       	.word	0x007f	; ????
     6a6:	00 7f       	andi	r16, 0xF0	; 240
     6a8:	09 09       	sbc	r16, r9
     6aa:	09 09       	sbc	r16, r9
     6ac:	06 00       	.word	0x0006	; ????
     6ae:	00 3e       	cpi	r16, 0xE0	; 224
     6b0:	41 41       	sbci	r20, 0x11	; 17
     6b2:	41 41       	sbci	r20, 0x11	; 17
     6b4:	22 00       	.word	0x0022	; ????
     6b6:	00 01       	movw	r0, r0
     6b8:	01 7f       	andi	r16, 0xF1	; 241
     6ba:	01 01       	movw	r0, r2
     6bc:	00 00       	nop
     6be:	00 27       	eor	r16, r16
     6c0:	48 48       	sbci	r20, 0x88	; 136
     6c2:	48 48       	sbci	r20, 0x88	; 136
     6c4:	3f 00       	.word	0x003f	; ????
     6c6:	00 1c       	adc	r0, r0
     6c8:	22 7f       	andi	r18, 0xF2	; 242
     6ca:	22 1c       	adc	r2, r2
     6cc:	00 00       	nop
     6ce:	00 63       	ori	r16, 0x30	; 48
     6d0:	14 08       	sbc	r1, r4
     6d2:	14 63       	ori	r17, 0x34	; 52
     6d4:	00 00       	nop
     6d6:	00 1f       	adc	r16, r16
     6d8:	20 20       	and	r2, r0
     6da:	20 3f       	cpi	r18, 0xF0	; 240
     6dc:	60 00       	.word	0x0060	; ????
     6de:	00 0f       	add	r16, r16
     6e0:	10 10       	cpse	r1, r0
     6e2:	10 10       	cpse	r1, r0
     6e4:	7f 00       	.word	0x007f	; ????
     6e6:	00 7f       	andi	r16, 0xF0	; 240
     6e8:	40 7f       	andi	r20, 0xF0	; 240
     6ea:	40 7f       	andi	r20, 0xF0	; 240
     6ec:	00 00       	nop
     6ee:	00 3f       	cpi	r16, 0xF0	; 240
     6f0:	20 3f       	cpi	r18, 0xF0	; 240
     6f2:	20 3f       	cpi	r18, 0xF0	; 240
     6f4:	60 00       	.word	0x0060	; ????
     6f6:	00 01       	movw	r0, r0
     6f8:	7f 44       	sbci	r23, 0x4F	; 79
     6fa:	44 44       	sbci	r20, 0x44	; 68
     6fc:	38 00       	.word	0x0038	; ????
     6fe:	00 7f       	andi	r16, 0xF0	; 240
     700:	44 44       	sbci	r20, 0x44	; 68
     702:	38 00       	.word	0x0038	; ????
     704:	7f 00       	.word	0x007f	; ????
     706:	00 7f       	andi	r16, 0xF0	; 240
     708:	44 44       	sbci	r20, 0x44	; 68
     70a:	44 44       	sbci	r20, 0x44	; 68
     70c:	38 00       	.word	0x0038	; ????
     70e:	00 22       	and	r0, r16
     710:	41 41       	sbci	r20, 0x11	; 17
     712:	49 49       	sbci	r20, 0x99	; 153
     714:	3e 00       	.word	0x003e	; ????
     716:	00 7f       	andi	r16, 0xF0	; 240
     718:	08 3e       	cpi	r16, 0xE8	; 232
     71a:	41 41       	sbci	r20, 0x11	; 17
     71c:	3e 00       	.word	0x003e	; ????
     71e:	00 46       	sbci	r16, 0x60	; 96
     720:	29 11       	cpse	r18, r9
     722:	11 11       	cpse	r17, r1
     724:	7f 00       	.word	0x007f	; ????
	...
     7de:	e0 f8       	bld	r14, 0
     7e0:	fc 3e       	cpi	r31, 0xEC	; 236
     7e2:	0e 07       	cpc	r16, r30
     7e4:	63 73       	andi	r22, 0x33	; 51
     7e6:	3f 1f       	adc	r19, r31
     7e8:	0f 06       	cpc	r0, r31
     7ea:	82 c0       	rjmp	.+260    	; 0x8f0 <drawString+0x4>
     7ec:	f0 e0       	ldi	r31, 0x00	; 0
     7ee:	07 1f       	adc	r16, r23
     7f0:	3f 3e       	cpi	r19, 0xEF	; 239
     7f2:	1c 8c       	ldd	r1, Y+28	; 0x1c
     7f4:	c6 e2       	ldi	r28, 0x26	; 38
     7f6:	f1 f8       	bld	r15, 1
     7f8:	fc 7e       	andi	r31, 0xEC	; 236
     7fa:	7f 3f       	cpi	r23, 0xFF	; 255
     7fc:	1f 07       	cpc	r17, r31
     7fe:	00 0c       	add	r0, r0
     800:	12 ca       	rjmp	.-3036   	; 0xfffffc26 <__eeprom_end+0xff7efc26>
     802:	24 90       	lpm	r2, Z
     804:	10 08       	sbc	r1, r0
     806:	08 90       	.word	0x9008	; ????
     808:	50 24       	eor	r5, r0
     80a:	ca 12       	cpse	r12, r26
     80c:	0c 00       	.word	0x000c	; ????
     80e:	00 00       	nop
     810:	03 0c       	add	r0, r3
     812:	10 20       	and	r1, r0
     814:	21 42       	sbci	r18, 0x21	; 33
     816:	43 20       	and	r4, r3
     818:	20 10       	cpse	r2, r0
     81a:	0c 03       	fmul	r16, r20
	...

00000826 <alarmSong>:
     826:	08 07 08 07 08 07 06 07 06 08 07 08 06 07 03 03     ................
     836:	06 08 04 06 07 00 00 00 00 00                       ..........

00000840 <__ctors_end>:
     840:	11 24       	eor	r1, r1
     842:	1f be       	out	0x3f, r1	; 63
     844:	cf e5       	ldi	r28, 0x5F	; 95
     846:	d4 e0       	ldi	r29, 0x04	; 4
     848:	de bf       	out	0x3e, r29	; 62
     84a:	cd bf       	out	0x3d, r28	; 61

0000084c <__do_copy_data>:
     84c:	10 e0       	ldi	r17, 0x00	; 0
     84e:	a0 e6       	ldi	r26, 0x60	; 96
     850:	b0 e0       	ldi	r27, 0x00	; 0
     852:	e2 e7       	ldi	r30, 0x72	; 114
     854:	f9 e1       	ldi	r31, 0x19	; 25
     856:	02 c0       	rjmp	.+4      	; 0x85c <__do_copy_data+0x10>
     858:	05 90       	lpm	r0, Z+
     85a:	0d 92       	st	X+, r0
     85c:	a2 3c       	cpi	r26, 0xC2	; 194
     85e:	b1 07       	cpc	r27, r17
     860:	d9 f7       	brne	.-10     	; 0x858 <__do_copy_data+0xc>

00000862 <__do_clear_bss>:
     862:	21 e0       	ldi	r18, 0x01	; 1
     864:	a2 ec       	ldi	r26, 0xC2	; 194
     866:	b0 e0       	ldi	r27, 0x00	; 0
     868:	01 c0       	rjmp	.+2      	; 0x86c <.do_clear_bss_start>

0000086a <.do_clear_bss_loop>:
     86a:	1d 92       	st	X+, r1

0000086c <.do_clear_bss_start>:
     86c:	a3 36       	cpi	r26, 0x63	; 99
     86e:	b2 07       	cpc	r27, r18
     870:	e1 f7       	brne	.-8      	; 0x86a <.do_clear_bss_loop>
     872:	03 d3       	rcall	.+1542   	; 0xe7a <main>
     874:	7c c8       	rjmp	.-3848   	; 0xfffff96e <__eeprom_end+0xff7ef96e>

00000876 <__bad_interrupt>:
     876:	c4 cb       	rjmp	.-2168   	; 0x0 <__vectors>

00000878 <f6x8m_GetCharTable>:
};

uint8_t f6x8_charbuff[CHAR_HEIGHT];

uint8_t *f6x8m_GetCharTable(uint8_t Char)
{
     878:	28 e0       	ldi	r18, 0x08	; 8
     87a:	82 9f       	mul	r24, r18
     87c:	c0 01       	movw	r24, r0
     87e:	11 24       	eor	r1, r1
     880:	8a 5d       	subi	r24, 0xDA	; 218
     882:	9f 4f       	sbci	r25, 0xFF	; 255
     884:	af ec       	ldi	r26, 0xCF	; 207
     886:	b0 e0       	ldi	r27, 0x00	; 0
     888:	47 ed       	ldi	r20, 0xD7	; 215
     88a:	50 e0       	ldi	r21, 0x00	; 0
	for (uint8_t i = 0; i < CHAR_HEIGHT; i++)
	f6x8_charbuff[i] = pgm_read_word(f6x8_table[Char] + i);
     88c:	fc 01       	movw	r30, r24
     88e:	25 91       	lpm	r18, Z+
     890:	34 91       	lpm	r19, Z
     892:	2d 93       	st	X+, r18
     894:	01 96       	adiw	r24, 0x01	; 1

uint8_t f6x8_charbuff[CHAR_HEIGHT];

uint8_t *f6x8m_GetCharTable(uint8_t Char)
{
	for (uint8_t i = 0; i < CHAR_HEIGHT; i++)
     896:	a4 17       	cp	r26, r20
     898:	b5 07       	cpc	r27, r21
     89a:	c1 f7       	brne	.-16     	; 0x88c <f6x8m_GetCharTable+0x14>
	f6x8_charbuff[i] = pgm_read_word(f6x8_table[Char] + i);
	
	return f6x8_charbuff;
}
     89c:	8f ec       	ldi	r24, 0xCF	; 207
     89e:	90 e0       	ldi	r25, 0x00	; 0
     8a0:	08 95       	ret

000008a2 <CharToBuffer>:

void CharToBuffer(uint16_t xStart, uint8_t chr){
     8a2:	cf 92       	push	r12
     8a4:	df 92       	push	r13
     8a6:	ef 92       	push	r14
     8a8:	ff 92       	push	r15
     8aa:	0f 93       	push	r16
     8ac:	1f 93       	push	r17
     8ae:	cf 93       	push	r28
     8b0:	df 93       	push	r29
     8b2:	c8 2e       	mov	r12, r24
     8b4:	d9 2e       	mov	r13, r25
     8b6:	86 2f       	mov	r24, r22
	uint8_t * charTbl = f6x8m_GetCharTable(chr);
     8b8:	df df       	rcall	.-66     	; 0x878 <f6x8m_GetCharTable>
     8ba:	8c 01       	movw	r16, r24
     8bc:	7c 01       	movw	r14, r24
     8be:	88 e0       	ldi	r24, 0x08	; 8
     8c0:	e8 0e       	add	r14, r24
     8c2:	f1 1c       	adc	r15, r1
     8c4:	cc 2d       	mov	r28, r12
     8c6:	dd 2d       	mov	r29, r13
	for(uint8_t x = 0; x < CHAR_HEIGHT; x++)
	setColumnData(xStart + x, charTbl[x]);
     8c8:	f8 01       	movw	r30, r16
     8ca:	61 91       	ld	r22, Z+
     8cc:	8f 01       	movw	r16, r30
     8ce:	ce 01       	movw	r24, r28
     8d0:	ce d1       	rcall	.+924    	; 0xc6e <setColumnData>
     8d2:	21 96       	adiw	r28, 0x01	; 1
	return f6x8_charbuff;
}

void CharToBuffer(uint16_t xStart, uint8_t chr){
	uint8_t * charTbl = f6x8m_GetCharTable(chr);
	for(uint8_t x = 0; x < CHAR_HEIGHT; x++)
     8d4:	0e 15       	cp	r16, r14
     8d6:	1f 05       	cpc	r17, r15
     8d8:	b9 f7       	brne	.-18     	; 0x8c8 <CharToBuffer+0x26>
	setColumnData(xStart + x, charTbl[x]);
}
     8da:	df 91       	pop	r29
     8dc:	cf 91       	pop	r28
     8de:	1f 91       	pop	r17
     8e0:	0f 91       	pop	r16
     8e2:	ff 90       	pop	r15
     8e4:	ef 90       	pop	r14
     8e6:	df 90       	pop	r13
     8e8:	cf 90       	pop	r12
     8ea:	08 95       	ret

000008ec <drawString>:

void drawString(uint16_t xStart, char * str){
     8ec:	0f 93       	push	r16
     8ee:	1f 93       	push	r17
     8f0:	cf 93       	push	r28
     8f2:	df 93       	push	r29
     8f4:	eb 01       	movw	r28, r22
	uint8_t eof = 0;
	while(!eof){
		switch(*str){
     8f6:	69 91       	ld	r22, Y+
     8f8:	66 23       	and	r22, r22
     8fa:	31 f0       	breq	.+12     	; 0x908 <drawString+0x1c>
			case '\0':
			eof = 1;
			break;
			default:
			CharToBuffer((xStart += CHAR_HEIGHT) - CHAR_HEIGHT, *str);
     8fc:	8c 01       	movw	r16, r24
     8fe:	08 5f       	subi	r16, 0xF8	; 248
     900:	1f 4f       	sbci	r17, 0xFF	; 255
     902:	cf df       	rcall	.-98     	; 0x8a2 <CharToBuffer>
     904:	c8 01       	movw	r24, r16
     906:	f7 cf       	rjmp	.-18     	; 0x8f6 <drawString+0xa>
			break;
		}
		str++;
	}
}
     908:	df 91       	pop	r29
     90a:	cf 91       	pop	r28
     90c:	1f 91       	pop	r17
     90e:	0f 91       	pop	r16
     910:	08 95       	ret

00000912 <drawStringCentered>:

void drawStringCentered(char * str){
	drawString(128/2-strlen(str)*8/2, str);
     912:	fc 01       	movw	r30, r24
     914:	01 90       	ld	r0, Z+
     916:	00 20       	and	r0, r0
     918:	e9 f7       	brne	.-6      	; 0x914 <drawStringCentered+0x2>
     91a:	31 97       	sbiw	r30, 0x01	; 1
     91c:	e8 1b       	sub	r30, r24
     91e:	f9 0b       	sbc	r31, r25
     920:	ee 0f       	add	r30, r30
     922:	ff 1f       	adc	r31, r31
     924:	ee 0f       	add	r30, r30
     926:	ff 1f       	adc	r31, r31
     928:	ee 0f       	add	r30, r30
     92a:	ff 1f       	adc	r31, r31
     92c:	f6 95       	lsr	r31
     92e:	e7 95       	ror	r30
     930:	bc 01       	movw	r22, r24
     932:	80 e4       	ldi	r24, 0x40	; 64
     934:	90 e0       	ldi	r25, 0x00	; 0
     936:	8e 1b       	sub	r24, r30
     938:	9f 0b       	sbc	r25, r31
     93a:	d8 df       	rcall	.-80     	; 0x8ec <drawString>
     93c:	08 95       	ret

0000093e <drawStringRight>:
}

void drawStringRight(char * str){
	drawString(128-strlen(str)*8, str);
     93e:	fc 01       	movw	r30, r24
     940:	01 90       	ld	r0, Z+
     942:	00 20       	and	r0, r0
     944:	e9 f7       	brne	.-6      	; 0x940 <drawStringRight+0x2>
     946:	31 97       	sbiw	r30, 0x01	; 1
     948:	9c 01       	movw	r18, r24
     94a:	2e 1b       	sub	r18, r30
     94c:	3f 0b       	sbc	r19, r31
     94e:	22 0f       	add	r18, r18
     950:	33 1f       	adc	r19, r19
     952:	22 0f       	add	r18, r18
     954:	33 1f       	adc	r19, r19
     956:	22 0f       	add	r18, r18
     958:	33 1f       	adc	r19, r19
     95a:	bc 01       	movw	r22, r24
     95c:	c9 01       	movw	r24, r18
     95e:	80 58       	subi	r24, 0x80	; 128
     960:	9f 4f       	sbci	r25, 0xFF	; 255
     962:	c4 df       	rcall	.-120    	; 0x8ec <drawString>
     964:	08 95       	ret

00000966 <I2C_Start>:
		switch(MODE){
			case 1:
				bufferok[x] |= (1 << bi);
			break;
			case 0:
				bufferok[x] &= ~(1 << bi);
     966:	86 e1       	ldi	r24, 0x16	; 22
     968:	80 b9       	out	0x00, r24	; 0
     96a:	86 b7       	in	r24, 0x36	; 54
     96c:	85 6a       	ori	r24, 0xA5	; 165
     96e:	86 bf       	out	0x36, r24	; 54
     970:	08 95       	ret

00000972 <I2C_Stop>:
     972:	86 b7       	in	r24, 0x36	; 54
     974:	85 69       	ori	r24, 0x95	; 149
     976:	86 bf       	out	0x36, r24	; 54
     978:	08 95       	ret

0000097a <DISP_Command>:
     97a:	cf 93       	push	r28
     97c:	c8 2f       	mov	r28, r24
     97e:	82 e0       	ldi	r24, 0x02	; 2
     980:	90 e0       	ldi	r25, 0x00	; 0
     982:	90 93 de 00 	sts	0x00DE, r25	; 0x8000de <_SEND_PACKET_COUNT_AMOUNT+0x1>
     986:	80 93 dd 00 	sts	0x00DD, r24	; 0x8000dd <_SEND_PACKET_COUNT_AMOUNT>
     98a:	90 93 d8 00 	sts	0x00D8, r25	; 0x8000d8 <_SEND_PACKET_COUNT+0x1>
     98e:	80 93 d7 00 	sts	0x00D7, r24	; 0x8000d7 <_SEND_PACKET_COUNT>
     992:	7e d6       	rcall	.+3324   	; 0x1690 <malloc>
     994:	90 93 da 00 	sts	0x00DA, r25	; 0x8000da <_SEND_PACKETS+0x1>
     998:	80 93 d9 00 	sts	0x00D9, r24	; 0x8000d9 <_SEND_PACKETS>
     99c:	fc 01       	movw	r30, r24
     99e:	10 82       	st	Z, r1
     9a0:	c1 83       	std	Z+1, r28	; 0x01
     9a2:	88 e7       	ldi	r24, 0x78	; 120
     9a4:	90 e0       	ldi	r25, 0x00	; 0
     9a6:	90 93 dc 00 	sts	0x00DC, r25	; 0x8000dc <_SEND_ADDRESS+0x1>
     9aa:	80 93 db 00 	sts	0x00DB, r24	; 0x8000db <_SEND_ADDRESS>
     9ae:	db df       	rcall	.-74     	; 0x966 <I2C_Start>
     9b0:	cf 91       	pop	r28
     9b2:	08 95       	ret

000009b4 <DISP_BufferData>:
     9b4:	cf 92       	push	r12
     9b6:	df 92       	push	r13
     9b8:	ef 92       	push	r14
     9ba:	ff 92       	push	r15
     9bc:	0f 93       	push	r16
     9be:	1f 93       	push	r17
     9c0:	cf 93       	push	r28
     9c2:	df 93       	push	r29
     9c4:	7c 01       	movw	r14, r24
     9c6:	6b 01       	movw	r12, r22
     9c8:	eb 01       	movw	r28, r22
     9ca:	21 96       	adiw	r28, 0x01	; 1
     9cc:	ce 01       	movw	r24, r28
     9ce:	60 d6       	rcall	.+3264   	; 0x1690 <malloc>
     9d0:	8c 01       	movw	r16, r24
     9d2:	80 e4       	ldi	r24, 0x40	; 64
     9d4:	f8 01       	movw	r30, r16
     9d6:	80 83       	st	Z, r24
     9d8:	c1 14       	cp	r12, r1
     9da:	d1 04       	cpc	r13, r1
     9dc:	59 f0       	breq	.+22     	; 0x9f4 <DISP_BufferData+0x40>
     9de:	f7 01       	movw	r30, r14
     9e0:	d8 01       	movw	r26, r16
     9e2:	11 96       	adiw	r26, 0x01	; 1
     9e4:	b7 01       	movw	r22, r14
     9e6:	6c 0d       	add	r22, r12
     9e8:	7d 1d       	adc	r23, r13
     9ea:	91 91       	ld	r25, Z+
     9ec:	9d 93       	st	X+, r25
     9ee:	e6 17       	cp	r30, r22
     9f0:	f7 07       	cpc	r31, r23
     9f2:	d9 f7       	brne	.-10     	; 0x9ea <DISP_BufferData+0x36>
     9f4:	d0 93 de 00 	sts	0x00DE, r29	; 0x8000de <_SEND_PACKET_COUNT_AMOUNT+0x1>
     9f8:	c0 93 dd 00 	sts	0x00DD, r28	; 0x8000dd <_SEND_PACKET_COUNT_AMOUNT>
     9fc:	d0 93 d8 00 	sts	0x00D8, r29	; 0x8000d8 <_SEND_PACKET_COUNT+0x1>
     a00:	c0 93 d7 00 	sts	0x00D7, r28	; 0x8000d7 <_SEND_PACKET_COUNT>
     a04:	ce 01       	movw	r24, r28
     a06:	44 d6       	rcall	.+3208   	; 0x1690 <malloc>
     a08:	90 93 da 00 	sts	0x00DA, r25	; 0x8000da <_SEND_PACKETS+0x1>
     a0c:	80 93 d9 00 	sts	0x00D9, r24	; 0x8000d9 <_SEND_PACKETS>
     a10:	ae 01       	movw	r20, r28
     a12:	b8 01       	movw	r22, r16
     a14:	5e d7       	rcall	.+3772   	; 0x18d2 <memcpy>
     a16:	88 e7       	ldi	r24, 0x78	; 120
     a18:	90 e0       	ldi	r25, 0x00	; 0
     a1a:	90 93 dc 00 	sts	0x00DC, r25	; 0x8000dc <_SEND_ADDRESS+0x1>
     a1e:	80 93 db 00 	sts	0x00DB, r24	; 0x8000db <_SEND_ADDRESS>
     a22:	c8 01       	movw	r24, r16
     a24:	cd d6       	rcall	.+3482   	; 0x17c0 <free>
     a26:	9f df       	rcall	.-194    	; 0x966 <I2C_Start>
     a28:	df 91       	pop	r29
     a2a:	cf 91       	pop	r28
     a2c:	1f 91       	pop	r17
     a2e:	0f 91       	pop	r16
     a30:	ff 90       	pop	r15
     a32:	ef 90       	pop	r14
     a34:	df 90       	pop	r13
     a36:	cf 90       	pop	r12
     a38:	08 95       	ret

00000a3a <DisplayInit>:
     a3a:	8e ea       	ldi	r24, 0xAE	; 174
     a3c:	9e df       	rcall	.-196    	; 0x97a <DISP_Command>
     a3e:	8b ed       	ldi	r24, 0xDB	; 219
     a40:	95 e0       	ldi	r25, 0x05	; 5
     a42:	01 97       	sbiw	r24, 0x01	; 1
     a44:	f1 f7       	brne	.-4      	; 0xa42 <DisplayInit+0x8>
     a46:	00 c0       	rjmp	.+0      	; 0xa48 <DisplayInit+0xe>
     a48:	00 00       	nop
     a4a:	85 ed       	ldi	r24, 0xD5	; 213
     a4c:	96 df       	rcall	.-212    	; 0x97a <DISP_Command>
     a4e:	8b ed       	ldi	r24, 0xDB	; 219
     a50:	95 e0       	ldi	r25, 0x05	; 5
     a52:	01 97       	sbiw	r24, 0x01	; 1
     a54:	f1 f7       	brne	.-4      	; 0xa52 <DisplayInit+0x18>
     a56:	00 c0       	rjmp	.+0      	; 0xa58 <DisplayInit+0x1e>
     a58:	00 00       	nop
     a5a:	80 e8       	ldi	r24, 0x80	; 128
     a5c:	8e df       	rcall	.-228    	; 0x97a <DISP_Command>
     a5e:	8b ed       	ldi	r24, 0xDB	; 219
     a60:	95 e0       	ldi	r25, 0x05	; 5
     a62:	01 97       	sbiw	r24, 0x01	; 1
     a64:	f1 f7       	brne	.-4      	; 0xa62 <DisplayInit+0x28>
     a66:	00 c0       	rjmp	.+0      	; 0xa68 <DisplayInit+0x2e>
     a68:	00 00       	nop
     a6a:	88 ea       	ldi	r24, 0xA8	; 168
     a6c:	86 df       	rcall	.-244    	; 0x97a <DISP_Command>
     a6e:	8b ed       	ldi	r24, 0xDB	; 219
     a70:	95 e0       	ldi	r25, 0x05	; 5
     a72:	01 97       	sbiw	r24, 0x01	; 1
     a74:	f1 f7       	brne	.-4      	; 0xa72 <DisplayInit+0x38>
     a76:	00 c0       	rjmp	.+0      	; 0xa78 <DisplayInit+0x3e>
     a78:	00 00       	nop
     a7a:	8f e3       	ldi	r24, 0x3F	; 63
     a7c:	7e df       	rcall	.-260    	; 0x97a <DISP_Command>
     a7e:	8b ed       	ldi	r24, 0xDB	; 219
     a80:	95 e0       	ldi	r25, 0x05	; 5
     a82:	01 97       	sbiw	r24, 0x01	; 1
     a84:	f1 f7       	brne	.-4      	; 0xa82 <DisplayInit+0x48>
     a86:	00 c0       	rjmp	.+0      	; 0xa88 <DisplayInit+0x4e>
     a88:	00 00       	nop
     a8a:	83 ed       	ldi	r24, 0xD3	; 211
     a8c:	76 df       	rcall	.-276    	; 0x97a <DISP_Command>
     a8e:	8b ed       	ldi	r24, 0xDB	; 219
     a90:	95 e0       	ldi	r25, 0x05	; 5
     a92:	01 97       	sbiw	r24, 0x01	; 1
     a94:	f1 f7       	brne	.-4      	; 0xa92 <DisplayInit+0x58>
     a96:	00 c0       	rjmp	.+0      	; 0xa98 <DisplayInit+0x5e>
     a98:	00 00       	nop
     a9a:	80 e0       	ldi	r24, 0x00	; 0
     a9c:	6e df       	rcall	.-292    	; 0x97a <DISP_Command>
     a9e:	8b ed       	ldi	r24, 0xDB	; 219
     aa0:	95 e0       	ldi	r25, 0x05	; 5
     aa2:	01 97       	sbiw	r24, 0x01	; 1
     aa4:	f1 f7       	brne	.-4      	; 0xaa2 <DisplayInit+0x68>
     aa6:	00 c0       	rjmp	.+0      	; 0xaa8 <DisplayInit+0x6e>
     aa8:	00 00       	nop
     aaa:	80 e4       	ldi	r24, 0x40	; 64
     aac:	66 df       	rcall	.-308    	; 0x97a <DISP_Command>
     aae:	8b ed       	ldi	r24, 0xDB	; 219
     ab0:	95 e0       	ldi	r25, 0x05	; 5
     ab2:	01 97       	sbiw	r24, 0x01	; 1
     ab4:	f1 f7       	brne	.-4      	; 0xab2 <DisplayInit+0x78>
     ab6:	00 c0       	rjmp	.+0      	; 0xab8 <DisplayInit+0x7e>
     ab8:	00 00       	nop
     aba:	8d e8       	ldi	r24, 0x8D	; 141
     abc:	5e df       	rcall	.-324    	; 0x97a <DISP_Command>
     abe:	8b ed       	ldi	r24, 0xDB	; 219
     ac0:	95 e0       	ldi	r25, 0x05	; 5
     ac2:	01 97       	sbiw	r24, 0x01	; 1
     ac4:	f1 f7       	brne	.-4      	; 0xac2 <DisplayInit+0x88>
     ac6:	00 c0       	rjmp	.+0      	; 0xac8 <DisplayInit+0x8e>
     ac8:	00 00       	nop
     aca:	84 e1       	ldi	r24, 0x14	; 20
     acc:	56 df       	rcall	.-340    	; 0x97a <DISP_Command>
     ace:	8b ed       	ldi	r24, 0xDB	; 219
     ad0:	95 e0       	ldi	r25, 0x05	; 5
     ad2:	01 97       	sbiw	r24, 0x01	; 1
     ad4:	f1 f7       	brne	.-4      	; 0xad2 <DisplayInit+0x98>
     ad6:	00 c0       	rjmp	.+0      	; 0xad8 <DisplayInit+0x9e>
     ad8:	00 00       	nop
     ada:	80 e2       	ldi	r24, 0x20	; 32
     adc:	4e df       	rcall	.-356    	; 0x97a <DISP_Command>
     ade:	8b ed       	ldi	r24, 0xDB	; 219
     ae0:	95 e0       	ldi	r25, 0x05	; 5
     ae2:	01 97       	sbiw	r24, 0x01	; 1
     ae4:	f1 f7       	brne	.-4      	; 0xae2 <DisplayInit+0xa8>
     ae6:	00 c0       	rjmp	.+0      	; 0xae8 <DisplayInit+0xae>
     ae8:	00 00       	nop
     aea:	80 e0       	ldi	r24, 0x00	; 0
     aec:	46 df       	rcall	.-372    	; 0x97a <DISP_Command>
     aee:	8b ed       	ldi	r24, 0xDB	; 219
     af0:	95 e0       	ldi	r25, 0x05	; 5
     af2:	01 97       	sbiw	r24, 0x01	; 1
     af4:	f1 f7       	brne	.-4      	; 0xaf2 <DisplayInit+0xb8>
     af6:	00 c0       	rjmp	.+0      	; 0xaf8 <DisplayInit+0xbe>
     af8:	00 00       	nop
     afa:	81 ea       	ldi	r24, 0xA1	; 161
     afc:	3e df       	rcall	.-388    	; 0x97a <DISP_Command>
     afe:	8b ed       	ldi	r24, 0xDB	; 219
     b00:	95 e0       	ldi	r25, 0x05	; 5
     b02:	01 97       	sbiw	r24, 0x01	; 1
     b04:	f1 f7       	brne	.-4      	; 0xb02 <DisplayInit+0xc8>
     b06:	00 c0       	rjmp	.+0      	; 0xb08 <DisplayInit+0xce>
     b08:	00 00       	nop
     b0a:	88 ec       	ldi	r24, 0xC8	; 200
     b0c:	36 df       	rcall	.-404    	; 0x97a <DISP_Command>
     b0e:	8b ed       	ldi	r24, 0xDB	; 219
     b10:	95 e0       	ldi	r25, 0x05	; 5
     b12:	01 97       	sbiw	r24, 0x01	; 1
     b14:	f1 f7       	brne	.-4      	; 0xb12 <DisplayInit+0xd8>
     b16:	00 c0       	rjmp	.+0      	; 0xb18 <DisplayInit+0xde>
     b18:	00 00       	nop
     b1a:	8a ed       	ldi	r24, 0xDA	; 218
     b1c:	2e df       	rcall	.-420    	; 0x97a <DISP_Command>
     b1e:	8b ed       	ldi	r24, 0xDB	; 219
     b20:	95 e0       	ldi	r25, 0x05	; 5
     b22:	01 97       	sbiw	r24, 0x01	; 1
     b24:	f1 f7       	brne	.-4      	; 0xb22 <DisplayInit+0xe8>
     b26:	00 c0       	rjmp	.+0      	; 0xb28 <DisplayInit+0xee>
     b28:	00 00       	nop
     b2a:	82 e1       	ldi	r24, 0x12	; 18
     b2c:	26 df       	rcall	.-436    	; 0x97a <DISP_Command>
     b2e:	8b ed       	ldi	r24, 0xDB	; 219
     b30:	95 e0       	ldi	r25, 0x05	; 5
     b32:	01 97       	sbiw	r24, 0x01	; 1
     b34:	f1 f7       	brne	.-4      	; 0xb32 <DisplayInit+0xf8>
     b36:	00 c0       	rjmp	.+0      	; 0xb38 <DisplayInit+0xfe>
     b38:	00 00       	nop
     b3a:	81 e8       	ldi	r24, 0x81	; 129
     b3c:	1e df       	rcall	.-452    	; 0x97a <DISP_Command>
     b3e:	8b ed       	ldi	r24, 0xDB	; 219
     b40:	95 e0       	ldi	r25, 0x05	; 5
     b42:	01 97       	sbiw	r24, 0x01	; 1
     b44:	f1 f7       	brne	.-4      	; 0xb42 <DisplayInit+0x108>
     b46:	00 c0       	rjmp	.+0      	; 0xb48 <DisplayInit+0x10e>
     b48:	00 00       	nop
     b4a:	8f ec       	ldi	r24, 0xCF	; 207
     b4c:	16 df       	rcall	.-468    	; 0x97a <DISP_Command>
     b4e:	8b ed       	ldi	r24, 0xDB	; 219
     b50:	95 e0       	ldi	r25, 0x05	; 5
     b52:	01 97       	sbiw	r24, 0x01	; 1
     b54:	f1 f7       	brne	.-4      	; 0xb52 <DisplayInit+0x118>
     b56:	00 c0       	rjmp	.+0      	; 0xb58 <DisplayInit+0x11e>
     b58:	00 00       	nop
     b5a:	89 ed       	ldi	r24, 0xD9	; 217
     b5c:	0e df       	rcall	.-484    	; 0x97a <DISP_Command>
     b5e:	8b ed       	ldi	r24, 0xDB	; 219
     b60:	95 e0       	ldi	r25, 0x05	; 5
     b62:	01 97       	sbiw	r24, 0x01	; 1
     b64:	f1 f7       	brne	.-4      	; 0xb62 <DisplayInit+0x128>
     b66:	00 c0       	rjmp	.+0      	; 0xb68 <DisplayInit+0x12e>
     b68:	00 00       	nop
     b6a:	81 ef       	ldi	r24, 0xF1	; 241
     b6c:	06 df       	rcall	.-500    	; 0x97a <DISP_Command>
     b6e:	8b ed       	ldi	r24, 0xDB	; 219
     b70:	95 e0       	ldi	r25, 0x05	; 5
     b72:	01 97       	sbiw	r24, 0x01	; 1
     b74:	f1 f7       	brne	.-4      	; 0xb72 <DisplayInit+0x138>
     b76:	00 c0       	rjmp	.+0      	; 0xb78 <DisplayInit+0x13e>
     b78:	00 00       	nop
     b7a:	8b ed       	ldi	r24, 0xDB	; 219
     b7c:	fe de       	rcall	.-516    	; 0x97a <DISP_Command>
     b7e:	8b ed       	ldi	r24, 0xDB	; 219
     b80:	95 e0       	ldi	r25, 0x05	; 5
     b82:	01 97       	sbiw	r24, 0x01	; 1
     b84:	f1 f7       	brne	.-4      	; 0xb82 <DisplayInit+0x148>
     b86:	00 c0       	rjmp	.+0      	; 0xb88 <DisplayInit+0x14e>
     b88:	00 00       	nop
     b8a:	80 e4       	ldi	r24, 0x40	; 64
     b8c:	f6 de       	rcall	.-532    	; 0x97a <DISP_Command>
     b8e:	8b ed       	ldi	r24, 0xDB	; 219
     b90:	95 e0       	ldi	r25, 0x05	; 5
     b92:	01 97       	sbiw	r24, 0x01	; 1
     b94:	f1 f7       	brne	.-4      	; 0xb92 <DisplayInit+0x158>
     b96:	00 c0       	rjmp	.+0      	; 0xb98 <DisplayInit+0x15e>
     b98:	00 00       	nop
     b9a:	84 ea       	ldi	r24, 0xA4	; 164
     b9c:	ee de       	rcall	.-548    	; 0x97a <DISP_Command>
     b9e:	8b ed       	ldi	r24, 0xDB	; 219
     ba0:	95 e0       	ldi	r25, 0x05	; 5
     ba2:	01 97       	sbiw	r24, 0x01	; 1
     ba4:	f1 f7       	brne	.-4      	; 0xba2 <DisplayInit+0x168>
     ba6:	00 c0       	rjmp	.+0      	; 0xba8 <DisplayInit+0x16e>
     ba8:	00 00       	nop
     baa:	86 ea       	ldi	r24, 0xA6	; 166
     bac:	e6 de       	rcall	.-564    	; 0x97a <DISP_Command>
     bae:	8b ed       	ldi	r24, 0xDB	; 219
     bb0:	95 e0       	ldi	r25, 0x05	; 5
     bb2:	01 97       	sbiw	r24, 0x01	; 1
     bb4:	f1 f7       	brne	.-4      	; 0xbb2 <DisplayInit+0x178>
     bb6:	00 c0       	rjmp	.+0      	; 0xbb8 <DisplayInit+0x17e>
     bb8:	00 00       	nop
     bba:	8f ea       	ldi	r24, 0xAF	; 175
     bbc:	de de       	rcall	.-580    	; 0x97a <DISP_Command>
     bbe:	8b ed       	ldi	r24, 0xDB	; 219
     bc0:	95 e0       	ldi	r25, 0x05	; 5
     bc2:	01 97       	sbiw	r24, 0x01	; 1
     bc4:	f1 f7       	brne	.-4      	; 0xbc2 <DisplayInit+0x188>
     bc6:	00 c0       	rjmp	.+0      	; 0xbc8 <DisplayInit+0x18e>
     bc8:	00 00       	nop
     bca:	08 95       	ret

00000bcc <updateScreen>:
     bcc:	cf 93       	push	r28
     bce:	c8 2f       	mov	r28, r24
     bd0:	81 e2       	ldi	r24, 0x21	; 33
     bd2:	d3 de       	rcall	.-602    	; 0x97a <DISP_Command>
     bd4:	81 ec       	ldi	r24, 0xC1	; 193
     bd6:	91 e0       	ldi	r25, 0x01	; 1
     bd8:	01 97       	sbiw	r24, 0x01	; 1
     bda:	f1 f7       	brne	.-4      	; 0xbd8 <updateScreen+0xc>
     bdc:	00 c0       	rjmp	.+0      	; 0xbde <updateScreen+0x12>
     bde:	00 00       	nop
     be0:	80 e0       	ldi	r24, 0x00	; 0
     be2:	cb de       	rcall	.-618    	; 0x97a <DISP_Command>
     be4:	81 ec       	ldi	r24, 0xC1	; 193
     be6:	91 e0       	ldi	r25, 0x01	; 1
     be8:	01 97       	sbiw	r24, 0x01	; 1
     bea:	f1 f7       	brne	.-4      	; 0xbe8 <updateScreen+0x1c>
     bec:	00 c0       	rjmp	.+0      	; 0xbee <updateScreen+0x22>
     bee:	00 00       	nop
     bf0:	8f e7       	ldi	r24, 0x7F	; 127
     bf2:	c3 de       	rcall	.-634    	; 0x97a <DISP_Command>
     bf4:	81 ec       	ldi	r24, 0xC1	; 193
     bf6:	91 e0       	ldi	r25, 0x01	; 1
     bf8:	01 97       	sbiw	r24, 0x01	; 1
     bfa:	f1 f7       	brne	.-4      	; 0xbf8 <updateScreen+0x2c>
     bfc:	00 c0       	rjmp	.+0      	; 0xbfe <updateScreen+0x32>
     bfe:	00 00       	nop
     c00:	82 e2       	ldi	r24, 0x22	; 34
     c02:	bb de       	rcall	.-650    	; 0x97a <DISP_Command>
     c04:	81 ec       	ldi	r24, 0xC1	; 193
     c06:	91 e0       	ldi	r25, 0x01	; 1
     c08:	01 97       	sbiw	r24, 0x01	; 1
     c0a:	f1 f7       	brne	.-4      	; 0xc08 <updateScreen+0x3c>
     c0c:	00 c0       	rjmp	.+0      	; 0xc0e <updateScreen+0x42>
     c0e:	00 00       	nop
     c10:	8c 2f       	mov	r24, r28
     c12:	b3 de       	rcall	.-666    	; 0x97a <DISP_Command>
     c14:	81 ec       	ldi	r24, 0xC1	; 193
     c16:	91 e0       	ldi	r25, 0x01	; 1
     c18:	01 97       	sbiw	r24, 0x01	; 1
     c1a:	f1 f7       	brne	.-4      	; 0xc18 <updateScreen+0x4c>
     c1c:	00 c0       	rjmp	.+0      	; 0xc1e <updateScreen+0x52>
     c1e:	00 00       	nop
     c20:	8c 2f       	mov	r24, r28
     c22:	ab de       	rcall	.-682    	; 0x97a <DISP_Command>
     c24:	81 ec       	ldi	r24, 0xC1	; 193
     c26:	91 e0       	ldi	r25, 0x01	; 1
     c28:	01 97       	sbiw	r24, 0x01	; 1
     c2a:	f1 f7       	brne	.-4      	; 0xc28 <updateScreen+0x5c>
     c2c:	00 c0       	rjmp	.+0      	; 0xc2e <updateScreen+0x62>
     c2e:	00 00       	nop
     c30:	60 e8       	ldi	r22, 0x80	; 128
     c32:	70 e0       	ldi	r23, 0x00	; 0
     c34:	8f ed       	ldi	r24, 0xDF	; 223
     c36:	90 e0       	ldi	r25, 0x00	; 0
     c38:	bd de       	rcall	.-646    	; 0x9b4 <DISP_BufferData>
     c3a:	83 ee       	ldi	r24, 0xE3	; 227
     c3c:	97 e5       	ldi	r25, 0x57	; 87
     c3e:	01 97       	sbiw	r24, 0x01	; 1
     c40:	f1 f7       	brne	.-4      	; 0xc3e <updateScreen+0x72>
     c42:	00 c0       	rjmp	.+0      	; 0xc44 <updateScreen+0x78>
     c44:	00 00       	nop
     c46:	cf 91       	pop	r28
     c48:	08 95       	ret

00000c4a <clearBuff>:
     c4a:	80 e8       	ldi	r24, 0x80	; 128
     c4c:	ef ed       	ldi	r30, 0xDF	; 223
     c4e:	f0 e0       	ldi	r31, 0x00	; 0
     c50:	df 01       	movw	r26, r30
     c52:	1d 92       	st	X+, r1
     c54:	8a 95       	dec	r24
     c56:	e9 f7       	brne	.-6      	; 0xc52 <clearBuff+0x8>
     c58:	08 95       	ret

00000c5a <clearScr>:
     c5a:	cf 93       	push	r28
     c5c:	f6 df       	rcall	.-20     	; 0xc4a <clearBuff>
     c5e:	c0 e0       	ldi	r28, 0x00	; 0
     c60:	8c 2f       	mov	r24, r28
     c62:	b4 df       	rcall	.-152    	; 0xbcc <updateScreen>
     c64:	cf 5f       	subi	r28, 0xFF	; 255
     c66:	c8 30       	cpi	r28, 0x08	; 8
     c68:	d9 f7       	brne	.-10     	; 0xc60 <clearScr+0x6>
     c6a:	cf 91       	pop	r28
     c6c:	08 95       	ret

00000c6e <setColumnData>:
     c6e:	81 52       	subi	r24, 0x21	; 33
     c70:	9f 4f       	sbci	r25, 0xFF	; 255
     c72:	fc 01       	movw	r30, r24
     c74:	60 83       	st	Z, r22
     c76:	08 95       	ret

00000c78 <__vector_17>:
	
	}
}

// I2C control with TWI state machine
ISR(TWI_vect){
     c78:	1f 92       	push	r1
     c7a:	0f 92       	push	r0
     c7c:	0f b6       	in	r0, 0x3f	; 63
     c7e:	0f 92       	push	r0
     c80:	11 24       	eor	r1, r1
     c82:	2f 93       	push	r18
     c84:	3f 93       	push	r19
     c86:	4f 93       	push	r20
     c88:	5f 93       	push	r21
     c8a:	6f 93       	push	r22
     c8c:	7f 93       	push	r23
     c8e:	8f 93       	push	r24
     c90:	9f 93       	push	r25
     c92:	af 93       	push	r26
     c94:	bf 93       	push	r27
     c96:	ef 93       	push	r30
     c98:	ff 93       	push	r31
	switch(TWSR){
     c9a:	81 b1       	in	r24, 0x01	; 1
     c9c:	88 31       	cpi	r24, 0x18	; 24
     c9e:	81 f0       	breq	.+32     	; 0xcc0 <__vector_17+0x48>
     ca0:	18 f4       	brcc	.+6      	; 0xca8 <__vector_17+0x30>
     ca2:	88 30       	cpi	r24, 0x08	; 8
     ca4:	39 f0       	breq	.+14     	; 0xcb4 <__vector_17+0x3c>
     ca6:	4b c0       	rjmp	.+150    	; 0xd3e <__vector_17+0xc6>
     ca8:	80 32       	cpi	r24, 0x20	; 32
     caa:	09 f4       	brne	.+2      	; 0xcae <__vector_17+0x36>
     cac:	41 c0       	rjmp	.+130    	; 0xd30 <__vector_17+0xb8>
     cae:	88 32       	cpi	r24, 0x28	; 40
     cb0:	e1 f0       	breq	.+56     	; 0xcea <__vector_17+0x72>
     cb2:	45 c0       	rjmp	.+138    	; 0xd3e <__vector_17+0xc6>
		case I2C_START_BYTE: // Start
			TWDR = _SEND_ADDRESS;
     cb4:	80 91 db 00 	lds	r24, 0x00DB	; 0x8000db <_SEND_ADDRESS>
     cb8:	83 b9       	out	0x03, r24	; 3
			TWCR = (1<<TWINT | 1<<TWEN | 1 << TWIE);
     cba:	85 e8       	ldi	r24, 0x85	; 133
     cbc:	86 bf       	out	0x36, r24	; 54
		break;
     cbe:	3f c0       	rjmp	.+126    	; 0xd3e <__vector_17+0xc6>
		case I2C_ASK_ADDR_BYTE: // SLA+W ACK
			TWDR = _SEND_PACKETS[_SEND_PACKET_COUNT_AMOUNT-_SEND_PACKET_COUNT];
     cc0:	e0 91 dd 00 	lds	r30, 0x00DD	; 0x8000dd <_SEND_PACKET_COUNT_AMOUNT>
     cc4:	f0 91 de 00 	lds	r31, 0x00DE	; 0x8000de <_SEND_PACKET_COUNT_AMOUNT+0x1>
     cc8:	80 91 d7 00 	lds	r24, 0x00D7	; 0x8000d7 <_SEND_PACKET_COUNT>
     ccc:	90 91 d8 00 	lds	r25, 0x00D8	; 0x8000d8 <_SEND_PACKET_COUNT+0x1>
     cd0:	e8 1b       	sub	r30, r24
     cd2:	f9 0b       	sbc	r31, r25
     cd4:	80 91 d9 00 	lds	r24, 0x00D9	; 0x8000d9 <_SEND_PACKETS>
     cd8:	90 91 da 00 	lds	r25, 0x00DA	; 0x8000da <_SEND_PACKETS+0x1>
     cdc:	e8 0f       	add	r30, r24
     cde:	f9 1f       	adc	r31, r25
     ce0:	80 81       	ld	r24, Z
     ce2:	83 b9       	out	0x03, r24	; 3
			TWCR = (1<<TWINT | 1<<TWEN | 1 << TWIE);
     ce4:	85 e8       	ldi	r24, 0x85	; 133
     ce6:	86 bf       	out	0x36, r24	; 54
		break;
     ce8:	2a c0       	rjmp	.+84     	; 0xd3e <__vector_17+0xc6>
		case I2C_ASK_BYTE: // BYTE ACK
			_SEND_PACKET_COUNT--;
     cea:	80 91 d7 00 	lds	r24, 0x00D7	; 0x8000d7 <_SEND_PACKET_COUNT>
     cee:	90 91 d8 00 	lds	r25, 0x00D8	; 0x8000d8 <_SEND_PACKET_COUNT+0x1>
     cf2:	01 97       	sbiw	r24, 0x01	; 1
     cf4:	90 93 d8 00 	sts	0x00D8, r25	; 0x8000d8 <_SEND_PACKET_COUNT+0x1>
     cf8:	80 93 d7 00 	sts	0x00D7, r24	; 0x8000d7 <_SEND_PACKET_COUNT>
			if(_SEND_PACKET_COUNT > 0){
     cfc:	00 97       	sbiw	r24, 0x00	; 0
     cfe:	89 f0       	breq	.+34     	; 0xd22 <__vector_17+0xaa>
				TWDR = _SEND_PACKETS[_SEND_PACKET_COUNT_AMOUNT-_SEND_PACKET_COUNT];
     d00:	e0 91 dd 00 	lds	r30, 0x00DD	; 0x8000dd <_SEND_PACKET_COUNT_AMOUNT>
     d04:	f0 91 de 00 	lds	r31, 0x00DE	; 0x8000de <_SEND_PACKET_COUNT_AMOUNT+0x1>
     d08:	e8 1b       	sub	r30, r24
     d0a:	f9 0b       	sbc	r31, r25
     d0c:	80 91 d9 00 	lds	r24, 0x00D9	; 0x8000d9 <_SEND_PACKETS>
     d10:	90 91 da 00 	lds	r25, 0x00DA	; 0x8000da <_SEND_PACKETS+0x1>
     d14:	e8 0f       	add	r30, r24
     d16:	f9 1f       	adc	r31, r25
     d18:	80 81       	ld	r24, Z
     d1a:	83 b9       	out	0x03, r24	; 3
				TWCR = (1<<TWINT | 1<<TWEN | 1 << TWIE);	
     d1c:	85 e8       	ldi	r24, 0x85	; 133
     d1e:	86 bf       	out	0x36, r24	; 54
     d20:	0e c0       	rjmp	.+28     	; 0xd3e <__vector_17+0xc6>
			}else{
				I2C_Stop();
     d22:	27 de       	rcall	.-946    	; 0x972 <I2C_Stop>
				free(_SEND_PACKETS);
     d24:	80 91 d9 00 	lds	r24, 0x00D9	; 0x8000d9 <_SEND_PACKETS>
     d28:	90 91 da 00 	lds	r25, 0x00DA	; 0x8000da <_SEND_PACKETS+0x1>
     d2c:	49 d5       	rcall	.+2706   	; 0x17c0 <free>
     d2e:	07 c0       	rjmp	.+14     	; 0xd3e <__vector_17+0xc6>
			}
		break;
		case I2C_NASK_BYTE: // SLA+W NACK
			I2C_Stop();
     d30:	20 de       	rcall	.-960    	; 0x972 <I2C_Stop>
			PORTB |= (1 << ERRORPIN); // Enable error pin
     d32:	c2 9a       	sbi	0x18, 2	; 24
			free(_SEND_PACKETS);
     d34:	80 91 d9 00 	lds	r24, 0x00D9	; 0x8000d9 <_SEND_PACKETS>
     d38:	90 91 da 00 	lds	r25, 0x00DA	; 0x8000da <_SEND_PACKETS+0x1>
     d3c:	41 d5       	rcall	.+2690   	; 0x17c0 <free>
		break;
		
	}
}
     d3e:	ff 91       	pop	r31
     d40:	ef 91       	pop	r30
     d42:	bf 91       	pop	r27
     d44:	af 91       	pop	r26
     d46:	9f 91       	pop	r25
     d48:	8f 91       	pop	r24
     d4a:	7f 91       	pop	r23
     d4c:	6f 91       	pop	r22
     d4e:	5f 91       	pop	r21
     d50:	4f 91       	pop	r20
     d52:	3f 91       	pop	r19
     d54:	2f 91       	pop	r18
     d56:	0f 90       	pop	r0
     d58:	0f be       	out	0x3f, r0	; 63
     d5a:	0f 90       	pop	r0
     d5c:	1f 90       	pop	r1
     d5e:	18 95       	reti

00000d60 <__vector_6>:
// Music
uint8_t bit = 0;
uint8_t note = 0;
uint8_t trackLenght = sizeof(alarmSong)/sizeof(*alarmSong);

ISR(TIMER1_COMPA_vect){
     d60:	1f 92       	push	r1
     d62:	0f 92       	push	r0
     d64:	0f b6       	in	r0, 0x3f	; 63
     d66:	0f 92       	push	r0
     d68:	11 24       	eor	r1, r1
     d6a:	2f 93       	push	r18
     d6c:	3f 93       	push	r19
     d6e:	8f 93       	push	r24
     d70:	9f 93       	push	r25

	ss++;
     d72:	80 91 cc 00 	lds	r24, 0x00CC	; 0x8000cc <ss>
     d76:	8f 5f       	subi	r24, 0xFF	; 255
	
	if(ss > 59){
     d78:	8c 33       	cpi	r24, 0x3C	; 60
     d7a:	18 f4       	brcc	.+6      	; 0xd82 <__vector_6+0x22>
uint8_t note = 0;
uint8_t trackLenght = sizeof(alarmSong)/sizeof(*alarmSong);

ISR(TIMER1_COMPA_vect){

	ss++;
     d7c:	80 93 cc 00 	sts	0x00CC, r24	; 0x8000cc <ss>
     d80:	07 c0       	rjmp	.+14     	; 0xd90 <__vector_6+0x30>
	
	if(ss > 59){
		ss = 0;
     d82:	10 92 cc 00 	sts	0x00CC, r1	; 0x8000cc <ss>
		mm++;
     d86:	80 91 cd 00 	lds	r24, 0x00CD	; 0x8000cd <mm>
     d8a:	8f 5f       	subi	r24, 0xFF	; 255
     d8c:	80 93 cd 00 	sts	0x00CD, r24	; 0x8000cd <mm>
	}
	if(mm > 59){
     d90:	80 91 cd 00 	lds	r24, 0x00CD	; 0x8000cd <mm>
     d94:	8c 33       	cpi	r24, 0x3C	; 60
     d96:	38 f0       	brcs	.+14     	; 0xda6 <__vector_6+0x46>
		mm = 0;
     d98:	10 92 cd 00 	sts	0x00CD, r1	; 0x8000cd <mm>
		hh++;
     d9c:	80 91 ce 00 	lds	r24, 0x00CE	; 0x8000ce <hh>
     da0:	8f 5f       	subi	r24, 0xFF	; 255
     da2:	80 93 ce 00 	sts	0x00CE, r24	; 0x8000ce <hh>
	}
	if(hh > 23){
     da6:	80 91 ce 00 	lds	r24, 0x00CE	; 0x8000ce <hh>
     daa:	88 31       	cpi	r24, 0x18	; 24
     dac:	30 f0       	brcs	.+12     	; 0xdba <__vector_6+0x5a>
		hh = 0;
     dae:	10 92 ce 00 	sts	0x00CE, r1	; 0x8000ce <hh>
		mm = 0;
     db2:	10 92 cd 00 	sts	0x00CD, r1	; 0x8000cd <mm>
		ss = 0;
     db6:	10 92 cc 00 	sts	0x00CC, r1	; 0x8000cc <ss>
	}
	
	if(alarmEnabled && hh == alarmHrs && mm == alarmMin && ss == alarmSecs) alarmFlag = 0;
     dba:	80 91 67 00 	lds	r24, 0x0067	; 0x800067 <alarmEnabled>
     dbe:	88 23       	and	r24, r24
     dc0:	59 f1       	breq	.+86     	; 0xe18 <__vector_6+0xb8>
     dc2:	90 91 ce 00 	lds	r25, 0x00CE	; 0x8000ce <hh>
     dc6:	80 91 ca 00 	lds	r24, 0x00CA	; 0x8000ca <alarmHrs>
     dca:	98 13       	cpse	r25, r24
     dcc:	34 c0       	rjmp	.+104    	; 0xe36 <__vector_6+0xd6>
     dce:	90 91 cd 00 	lds	r25, 0x00CD	; 0x8000cd <mm>
     dd2:	80 91 c9 00 	lds	r24, 0x00C9	; 0x8000c9 <alarmMin>
     dd6:	98 13       	cpse	r25, r24
     dd8:	08 c0       	rjmp	.+16     	; 0xdea <__vector_6+0x8a>
     dda:	90 91 cc 00 	lds	r25, 0x00CC	; 0x8000cc <ss>
     dde:	80 91 c8 00 	lds	r24, 0x00C8	; 0x8000c8 <alarmSecs>
     de2:	98 13       	cpse	r25, r24
     de4:	02 c0       	rjmp	.+4      	; 0xdea <__vector_6+0x8a>
     de6:	10 92 c5 00 	sts	0x00C5, r1	; 0x8000c5 <alarmFlag>
	if(alarmEnabled && hh >= alarmHrs && mm >= alarmMin && (ss >= alarmSecs || mm > alarmMin) && !alarmFlag) alarmTime++;
     dea:	90 91 cd 00 	lds	r25, 0x00CD	; 0x8000cd <mm>
     dee:	80 91 c9 00 	lds	r24, 0x00C9	; 0x8000c9 <alarmMin>
     df2:	98 17       	cp	r25, r24
     df4:	88 f0       	brcs	.+34     	; 0xe18 <__vector_6+0xb8>
     df6:	30 91 cc 00 	lds	r19, 0x00CC	; 0x8000cc <ss>
     dfa:	20 91 c8 00 	lds	r18, 0x00C8	; 0x8000c8 <alarmSecs>
     dfe:	32 17       	cp	r19, r18
     e00:	10 f4       	brcc	.+4      	; 0xe06 <__vector_6+0xa6>
     e02:	89 17       	cp	r24, r25
     e04:	48 f4       	brcc	.+18     	; 0xe18 <__vector_6+0xb8>
     e06:	80 91 c5 00 	lds	r24, 0x00C5	; 0x8000c5 <alarmFlag>
     e0a:	81 11       	cpse	r24, r1
     e0c:	05 c0       	rjmp	.+10     	; 0xe18 <__vector_6+0xb8>
     e0e:	80 91 c6 00 	lds	r24, 0x00C6	; 0x8000c6 <alarmTime>
     e12:	8f 5f       	subi	r24, 0xFF	; 255
     e14:	80 93 c6 00 	sts	0x00C6, r24	; 0x8000c6 <alarmTime>
	if(alarmTime >= ALARM_TIME){
     e18:	80 91 c6 00 	lds	r24, 0x00C6	; 0x8000c6 <alarmTime>
     e1c:	8e 31       	cpi	r24, 0x1E	; 30
     e1e:	70 f0       	brcs	.+28     	; 0xe3c <__vector_6+0xdc>
		alarmTime = 0;
     e20:	10 92 c6 00 	sts	0x00C6, r1	; 0x8000c6 <alarmTime>
		alarmEnabled = 0;
     e24:	10 92 67 00 	sts	0x0067, r1	; 0x800067 <alarmEnabled>
		TCCR0 = 0;
     e28:	13 be       	out	0x33, r1	; 51
		bit = 0;
     e2a:	10 92 c3 00 	sts	0x00C3, r1	; 0x8000c3 <bit>
		note = 0;
     e2e:	10 92 c2 00 	sts	0x00C2, r1	; 0x8000c2 <__data_end>
		PORTB &= ~(1 << soundSpeaker);
     e32:	c1 98       	cbi	0x18, 1	; 24
	}
}
     e34:	03 c0       	rjmp	.+6      	; 0xe3c <__vector_6+0xdc>
		mm = 0;
		ss = 0;
	}
	
	if(alarmEnabled && hh == alarmHrs && mm == alarmMin && ss == alarmSecs) alarmFlag = 0;
	if(alarmEnabled && hh >= alarmHrs && mm >= alarmMin && (ss >= alarmSecs || mm > alarmMin) && !alarmFlag) alarmTime++;
     e36:	98 17       	cp	r25, r24
     e38:	78 f3       	brcs	.-34     	; 0xe18 <__vector_6+0xb8>
     e3a:	d7 cf       	rjmp	.-82     	; 0xdea <__vector_6+0x8a>
		TCCR0 = 0;
		bit = 0;
		note = 0;
		PORTB &= ~(1 << soundSpeaker);
	}
}
     e3c:	9f 91       	pop	r25
     e3e:	8f 91       	pop	r24
     e40:	3f 91       	pop	r19
     e42:	2f 91       	pop	r18
     e44:	0f 90       	pop	r0
     e46:	0f be       	out	0x3f, r0	; 63
     e48:	0f 90       	pop	r0
     e4a:	1f 90       	pop	r1
     e4c:	18 95       	reti

00000e4e <__vector_9>:
ISR(TIMER0_OVF_vect){
     e4e:	1f 92       	push	r1
     e50:	0f 92       	push	r0
     e52:	0f b6       	in	r0, 0x3f	; 63
     e54:	0f 92       	push	r0
     e56:	11 24       	eor	r1, r1
     e58:	8f 93       	push	r24
     e5a:	9f 93       	push	r25

	TCNT0 = 255 - setTim;
     e5c:	80 91 c4 00 	lds	r24, 0x00C4	; 0x8000c4 <setTim>
     e60:	80 95       	com	r24
     e62:	82 bf       	out	0x32, r24	; 50
	PORTB ^= (1 << soundSpeaker);
     e64:	98 b3       	in	r25, 0x18	; 24
     e66:	82 e0       	ldi	r24, 0x02	; 2
     e68:	89 27       	eor	r24, r25
     e6a:	88 bb       	out	0x18, r24	; 24
	
}
     e6c:	9f 91       	pop	r25
     e6e:	8f 91       	pop	r24
     e70:	0f 90       	pop	r0
     e72:	0f be       	out	0x3f, r0	; 63
     e74:	0f 90       	pop	r0
     e76:	1f 90       	pop	r1
     e78:	18 95       	reti

00000e7a <main>:

int main(void)
{
     e7a:	cf 93       	push	r28
     e7c:	df 93       	push	r29
     e7e:	cd b7       	in	r28, 0x3d	; 61
     e80:	de b7       	in	r29, 0x3e	; 62
     e82:	62 97       	sbiw	r28, 0x12	; 18
     e84:	0f b6       	in	r0, 0x3f	; 63
     e86:	f8 94       	cli
     e88:	de bf       	out	0x3e, r29	; 62
     e8a:	0f be       	out	0x3f, r0	; 63
     e8c:	cd bf       	out	0x3d, r28	; 61
	cli();
     e8e:	f8 94       	cli
	char chaM[3];
	char chaS[3];
	char HMS[9];
	
	// Setup speaker port
	DDRB |= (1 << soundSpeaker);
     e90:	b9 9a       	sbi	0x17, 1	; 23
	
	// SETUP BUTTONS INPUT
	PORTC |= (1 << buttonAccept | 1 << buttonUp | 1 << buttonDown | 1 << buttonMode);
     e92:	85 b3       	in	r24, 0x15	; 21
     e94:	8f 60       	ori	r24, 0x0F	; 15
     e96:	85 bb       	out	0x15, r24	; 21
	uint8_t dBtnMode = 0;
	uint8_t dBtnUp = 0;
	uint8_t dBtnDown = 0;
	uint8_t dBtnAccept = 0;
	
	sei();
     e98:	78 94       	sei
	// SETUP 16bit TIMER EVERY 1 SECOND
	TCCR1B |= (1 << WGM12);
     e9a:	8e b5       	in	r24, 0x2e	; 46
     e9c:	88 60       	ori	r24, 0x08	; 8
     e9e:	8e bd       	out	0x2e, r24	; 46
	TIMSK |= ( 1 << OCIE1A);
     ea0:	89 b7       	in	r24, 0x39	; 57
     ea2:	80 61       	ori	r24, 0x10	; 16
     ea4:	89 bf       	out	0x39, r24	; 57
	TCCR1B |= (1 << CS12 | 1 << CS10); // Timer Enable
     ea6:	8e b5       	in	r24, 0x2e	; 46
     ea8:	85 60       	ori	r24, 0x05	; 5
     eaa:	8e bd       	out	0x2e, r24	; 46
	OCR1A = 5858;
     eac:	82 ee       	ldi	r24, 0xE2	; 226
     eae:	96 e1       	ldi	r25, 0x16	; 22
     eb0:	9b bd       	out	0x2b, r25	; 43
     eb2:	8a bd       	out	0x2a, r24	; 42
	
	// Setup 8bit timer
	TIMSK |= ( 1 << TOIE0 ); // Allow 8bit timer interrupt
     eb4:	89 b7       	in	r24, 0x39	; 57
     eb6:	81 60       	ori	r24, 0x01	; 1
     eb8:	89 bf       	out	0x39, r24	; 57
	//TCCR0 |= ( 1 << CS00 | 1 << CS02); // Setup prescale by 1024 =)
	
	

	// Initialize display
	DisplayInit();
     eba:	bf dd       	rcall	.-1154   	; 0xa3a <DisplayInit>
	#else
		//round up by default
		__ticks_dc = (uint32_t)(ceil(fabs(__tmp)));
	#endif

	__builtin_avr_delay_cycles(__ticks_dc);
     ebc:	87 e9       	ldi	r24, 0x97	; 151
     ebe:	9a e3       	ldi	r25, 0x3A	; 58
     ec0:	01 97       	sbiw	r24, 0x01	; 1
     ec2:	f1 f7       	brne	.-4      	; 0xec0 <main+0x46>
     ec4:	00 c0       	rjmp	.+0      	; 0xec6 <main+0x4c>
     ec6:	00 00       	nop
	_delay_ms(10);
	clearScr();
     ec8:	c8 de       	rcall	.-624    	; 0xc5a <clearScr>
     eca:	e7 e9       	ldi	r30, 0x97	; 151
     ecc:	fa e3       	ldi	r31, 0x3A	; 58
     ece:	31 97       	sbiw	r30, 0x01	; 1
     ed0:	f1 f7       	brne	.-4      	; 0xece <main+0x54>
     ed2:	00 c0       	rjmp	.+0      	; 0xed4 <main+0x5a>
     ed4:	00 00       	nop
	_delay_ms(10);
	// Menu settings
	uint8_t menuPos = 0;
     ed6:	21 2c       	mov	r2, r1
	PORTC |= (1 << buttonAccept | 1 << buttonUp | 1 << buttonDown | 1 << buttonMode);
	
	uint8_t dBtnMode = 0;
	uint8_t dBtnUp = 0;
	uint8_t dBtnDown = 0;
	uint8_t dBtnAccept = 0;
     ed8:	61 2c       	mov	r6, r1
	// SETUP BUTTONS INPUT
	PORTC |= (1 << buttonAccept | 1 << buttonUp | 1 << buttonDown | 1 << buttonMode);
	
	uint8_t dBtnMode = 0;
	uint8_t dBtnUp = 0;
	uint8_t dBtnDown = 0;
     eda:	70 e0       	ldi	r23, 0x00	; 0
	
	// SETUP BUTTONS INPUT
	PORTC |= (1 << buttonAccept | 1 << buttonUp | 1 << buttonDown | 1 << buttonMode);
	
	uint8_t dBtnMode = 0;
	uint8_t dBtnUp = 0;
     edc:	40 e0       	ldi	r20, 0x00	; 0
	DDRB |= (1 << soundSpeaker);
	
	// SETUP BUTTONS INPUT
	PORTC |= (1 << buttonAccept | 1 << buttonUp | 1 << buttonDown | 1 << buttonMode);
	
	uint8_t dBtnMode = 0;
     ede:	a0 e0       	ldi	r26, 0x00	; 0
		
		uint8_t blBtnMode = abs(dBtnMode - (~PINC & (1 << buttonMode)));
		dBtnMode = ~PINC & (1<<buttonMode);
			
		uint8_t blBtnAccept = abs(dBtnAccept - (~PINC & (1 << buttonAccept)));
		dBtnAccept = ~PINC & (1<<buttonAccept);
     ee0:	33 24       	eor	r3, r3
     ee2:	33 94       	inc	r3
				if(hh < 10){
					strcpy(HMS, "0");
					strcat(HMS,chaH);
				}else
				strcpy(HMS,chaH);
				strcat(HMS,":");
     ee4:	7e 01       	movw	r14, r28
     ee6:	fa e0       	ldi	r31, 0x0A	; 10
     ee8:	ef 0e       	add	r14, r31
     eea:	f1 1c       	adc	r15, r1
     eec:	0f 2e       	mov	r0, r31
     eee:	fa e3       	ldi	r31, 0x3A	; 58
     ef0:	af 2e       	mov	r10, r31
     ef2:	b1 2c       	mov	r11, r1
     ef4:	f0 2d       	mov	r31, r0
				strcat(HMS,"0");
				strcat(HMS, chaM);
				strcat(HMS, ":");
			
				if(ss < 10)
				strcat(HMS,"0");
     ef6:	0f 2e       	mov	r0, r31
     ef8:	f0 e3       	ldi	r31, 0x30	; 48
     efa:	8f 2e       	mov	r8, r31
     efc:	91 2c       	mov	r9, r1
     efe:	f0 2d       	mov	r31, r0
	
	
	while (1){
		
		// Alarm
		if(alarmEnabled && hh >= alarmHrs && mm >= alarmMin && (ss >= alarmSecs || mm > alarmMin) && !alarmFlag){
     f00:	80 91 67 00 	lds	r24, 0x0067	; 0x800067 <alarmEnabled>
     f04:	88 23       	and	r24, r24
     f06:	09 f4       	brne	.+2      	; 0xf0a <main+0x90>
     f08:	40 c0       	rjmp	.+128    	; 0xf8a <main+0x110>
     f0a:	90 91 ce 00 	lds	r25, 0x00CE	; 0x8000ce <hh>
     f0e:	80 91 ca 00 	lds	r24, 0x00CA	; 0x8000ca <alarmHrs>
     f12:	98 17       	cp	r25, r24
     f14:	d0 f1       	brcs	.+116    	; 0xf8a <main+0x110>
     f16:	90 91 cd 00 	lds	r25, 0x00CD	; 0x8000cd <mm>
     f1a:	80 91 c9 00 	lds	r24, 0x00C9	; 0x8000c9 <alarmMin>
     f1e:	98 17       	cp	r25, r24
     f20:	a0 f1       	brcs	.+104    	; 0xf8a <main+0x110>
     f22:	30 91 cc 00 	lds	r19, 0x00CC	; 0x8000cc <ss>
     f26:	20 91 c8 00 	lds	r18, 0x00C8	; 0x8000c8 <alarmSecs>
     f2a:	32 17       	cp	r19, r18
     f2c:	10 f4       	brcc	.+4      	; 0xf32 <main+0xb8>
     f2e:	89 17       	cp	r24, r25
     f30:	60 f5       	brcc	.+88     	; 0xf8a <main+0x110>
     f32:	80 91 c5 00 	lds	r24, 0x00C5	; 0x8000c5 <alarmFlag>
     f36:	81 11       	cpse	r24, r1
     f38:	28 c0       	rjmp	.+80     	; 0xf8a <main+0x110>
			note = pgm_read_word(&alarmSong[bit]);
     f3a:	e0 91 c3 00 	lds	r30, 0x00C3	; 0x8000c3 <bit>
     f3e:	f0 e0       	ldi	r31, 0x00	; 0
     f40:	ea 5d       	subi	r30, 0xDA	; 218
     f42:	f7 4f       	sbci	r31, 0xF7	; 247
     f44:	85 91       	lpm	r24, Z+
     f46:	94 91       	lpm	r25, Z
     f48:	80 93 c2 00 	sts	0x00C2, r24	; 0x8000c2 <__data_end>
			if(note == 0){ setTim = 0; TCCR0 = 0;} else TCCR0 |= ( 1 << CS00 | 1 << CS02);
     f4c:	81 11       	cpse	r24, r1
     f4e:	04 c0       	rjmp	.+8      	; 0xf58 <main+0xde>
     f50:	10 92 c4 00 	sts	0x00C4, r1	; 0x8000c4 <setTim>
     f54:	13 be       	out	0x33, r1	; 51
     f56:	03 c0       	rjmp	.+6      	; 0xf5e <main+0xe4>
     f58:	83 b7       	in	r24, 0x33	; 51
     f5a:	85 60       	ori	r24, 0x05	; 5
     f5c:	83 bf       	out	0x33, r24	; 51
			if(note != 1 && note != 0)
     f5e:	80 91 c2 00 	lds	r24, 0x00C2	; 0x8000c2 <__data_end>
     f62:	82 30       	cpi	r24, 0x02	; 2
     f64:	10 f0       	brcs	.+4      	; 0xf6a <main+0xf0>
			setTim = note;
     f66:	80 93 c4 00 	sts	0x00C4, r24	; 0x8000c4 <setTim>
			if(bit++ >= trackLenght) {bit = 0; setTim = 0; TCCR0 = 0;}
     f6a:	80 91 c3 00 	lds	r24, 0x00C3	; 0x8000c3 <bit>
     f6e:	91 e0       	ldi	r25, 0x01	; 1
     f70:	98 0f       	add	r25, r24
     f72:	90 93 c3 00 	sts	0x00C3, r25	; 0x8000c3 <bit>
     f76:	90 91 66 00 	lds	r25, 0x0066	; 0x800066 <trackLenght>
     f7a:	89 17       	cp	r24, r25
     f7c:	28 f0       	brcs	.+10     	; 0xf88 <main+0x10e>
     f7e:	10 92 c3 00 	sts	0x00C3, r1	; 0x8000c3 <bit>
     f82:	10 92 c4 00 	sts	0x00C4, r1	; 0x8000c4 <setTim>
     f86:	13 be       	out	0x33, r1	; 51
			PORTB &= ~(1 << soundSpeaker);
     f88:	c1 98       	cbi	0x18, 1	; 24
		}
		
		// Buttons
		uint8_t blBtnUp = abs(dBtnUp - (~PINC & (1 << buttonUp)));
     f8a:	23 b3       	in	r18, 0x13	; 19
		dBtnUp = ~PINC & (1<<buttonUp);
     f8c:	03 b3       	in	r16, 0x13	; 19
     f8e:	00 95       	com	r16
     f90:	04 70       	andi	r16, 0x04	; 4
		
		uint8_t blBtnDown = abs(dBtnDown - (~PINC & (1 << buttonDown)));
     f92:	93 b3       	in	r25, 0x13	; 19
		dBtnDown = ~PINC & (1<<buttonDown);
     f94:	73 b2       	in	r7, 0x13	; 19
     f96:	87 2d       	mov	r24, r7
     f98:	80 95       	com	r24
     f9a:	88 70       	andi	r24, 0x08	; 8
     f9c:	78 2e       	mov	r7, r24
		
		uint8_t blBtnMode = abs(dBtnMode - (~PINC & (1 << buttonMode)));
     f9e:	83 b3       	in	r24, 0x13	; 19
		dBtnMode = ~PINC & (1<<buttonMode);
     fa0:	13 b3       	in	r17, 0x13	; 19
     fa2:	10 95       	com	r17
     fa4:	12 70       	andi	r17, 0x02	; 2
			
		uint8_t blBtnAccept = abs(dBtnAccept - (~PINC & (1 << buttonAccept)));
     fa6:	43 b2       	in	r4, 0x13	; 19
		dBtnAccept = ~PINC & (1<<buttonAccept);
     fa8:	33 b3       	in	r19, 0x13	; 19
     faa:	53 2c       	mov	r5, r3
     fac:	63 2f       	mov	r22, r19
     fae:	61 70       	andi	r22, 0x01	; 1
     fb0:	30 fd       	sbrc	r19, 0
     fb2:	51 2c       	mov	r5, r1
		
		
		if((~PINC & (1<<buttonUp)) && blBtnUp){
     fb4:	9a 99       	sbic	0x13, 2	; 19
     fb6:	72 c0       	rjmp	.+228    	; 0x109c <main+0x222>
     fb8:	50 e0       	ldi	r21, 0x00	; 0
     fba:	30 e0       	ldi	r19, 0x00	; 0
     fbc:	20 95       	com	r18
     fbe:	30 95       	com	r19
     fc0:	24 70       	andi	r18, 0x04	; 4
     fc2:	33 27       	eor	r19, r19
     fc4:	42 1b       	sub	r20, r18
     fc6:	53 0b       	sbc	r21, r19
     fc8:	9a 01       	movw	r18, r20
     fca:	22 f4       	brpl	.+8      	; 0xfd4 <main+0x15a>
     fcc:	22 27       	eor	r18, r18
     fce:	33 27       	eor	r19, r19
     fd0:	24 1b       	sub	r18, r20
     fd2:	35 0b       	sbc	r19, r21
     fd4:	22 23       	and	r18, r18
     fd6:	09 f4       	brne	.+2      	; 0xfda <main+0x160>
     fd8:	61 c0       	rjmp	.+194    	; 0x109c <main+0x222>
			switch(CLOCK_MODE){
     fda:	20 91 cb 00 	lds	r18, 0x00CB	; 0x8000cb <CLOCK_MODE>
     fde:	22 30       	cpi	r18, 0x02	; 2
     fe0:	61 f0       	breq	.+24     	; 0xffa <main+0x180>
     fe2:	23 30       	cpi	r18, 0x03	; 3
     fe4:	99 f1       	breq	.+102    	; 0x104c <main+0x1d2>
     fe6:	21 30       	cpi	r18, 0x01	; 1
     fe8:	09 f0       	breq	.+2      	; 0xfec <main+0x172>
     fea:	58 c0       	rjmp	.+176    	; 0x109c <main+0x222>
				case 1:  // Menu
					if(menuPos == 0) menuPos = MENU_COUNT;
     fec:	21 10       	cpse	r2, r1
     fee:	03 c0       	rjmp	.+6      	; 0xff6 <main+0x17c>
     ff0:	68 94       	set
     ff2:	22 24       	eor	r2, r2
     ff4:	21 f8       	bld	r2, 1
					menuPos--;
     ff6:	2a 94       	dec	r2
				break;
     ff8:	51 c0       	rjmp	.+162    	; 0x109c <main+0x222>
				case 2: // Alarm
					switch(alarmPos){
     ffa:	20 91 c7 00 	lds	r18, 0x00C7	; 0x8000c7 <alarmPos>
     ffe:	21 30       	cpi	r18, 0x01	; 1
    1000:	79 f0       	breq	.+30     	; 0x1020 <main+0x1a6>
    1002:	18 f0       	brcs	.+6      	; 0x100a <main+0x190>
    1004:	22 30       	cpi	r18, 0x02	; 2
    1006:	b9 f0       	breq	.+46     	; 0x1036 <main+0x1bc>
    1008:	49 c0       	rjmp	.+146    	; 0x109c <main+0x222>
						case 0:
							alarmHrs++;
    100a:	20 91 ca 00 	lds	r18, 0x00CA	; 0x8000ca <alarmHrs>
    100e:	2f 5f       	subi	r18, 0xFF	; 255
							if(alarmHrs >= 24) alarmHrs = 0;
    1010:	28 31       	cpi	r18, 0x18	; 24
    1012:	18 f4       	brcc	.+6      	; 0x101a <main+0x1a0>
					menuPos--;
				break;
				case 2: // Alarm
					switch(alarmPos){
						case 0:
							alarmHrs++;
    1014:	20 93 ca 00 	sts	0x00CA, r18	; 0x8000ca <alarmHrs>
    1018:	41 c0       	rjmp	.+130    	; 0x109c <main+0x222>
							if(alarmHrs >= 24) alarmHrs = 0;
    101a:	10 92 ca 00 	sts	0x00CA, r1	; 0x8000ca <alarmHrs>
    101e:	3e c0       	rjmp	.+124    	; 0x109c <main+0x222>
						break;
						case 1:
							alarmMin++;
    1020:	20 91 c9 00 	lds	r18, 0x00C9	; 0x8000c9 <alarmMin>
    1024:	2f 5f       	subi	r18, 0xFF	; 255
							if(alarmMin >= 60) alarmMin = 0;
    1026:	2c 33       	cpi	r18, 0x3C	; 60
    1028:	18 f4       	brcc	.+6      	; 0x1030 <main+0x1b6>
						case 0:
							alarmHrs++;
							if(alarmHrs >= 24) alarmHrs = 0;
						break;
						case 1:
							alarmMin++;
    102a:	20 93 c9 00 	sts	0x00C9, r18	; 0x8000c9 <alarmMin>
    102e:	36 c0       	rjmp	.+108    	; 0x109c <main+0x222>
							if(alarmMin >= 60) alarmMin = 0;
    1030:	10 92 c9 00 	sts	0x00C9, r1	; 0x8000c9 <alarmMin>
    1034:	33 c0       	rjmp	.+102    	; 0x109c <main+0x222>
						break;
						case 2:
							alarmSecs++;
    1036:	20 91 c8 00 	lds	r18, 0x00C8	; 0x8000c8 <alarmSecs>
    103a:	2f 5f       	subi	r18, 0xFF	; 255
							if(alarmSecs >= 60) alarmSecs = 0;
    103c:	2c 33       	cpi	r18, 0x3C	; 60
    103e:	18 f4       	brcc	.+6      	; 0x1046 <main+0x1cc>
						case 1:
							alarmMin++;
							if(alarmMin >= 60) alarmMin = 0;
						break;
						case 2:
							alarmSecs++;
    1040:	20 93 c8 00 	sts	0x00C8, r18	; 0x8000c8 <alarmSecs>
    1044:	2b c0       	rjmp	.+86     	; 0x109c <main+0x222>
							if(alarmSecs >= 60) alarmSecs = 0;
    1046:	10 92 c8 00 	sts	0x00C8, r1	; 0x8000c8 <alarmSecs>
    104a:	28 c0       	rjmp	.+80     	; 0x109c <main+0x222>
						break;
					}
				break;
				
				case 3: // Set time
				switch(alarmPos){
    104c:	20 91 c7 00 	lds	r18, 0x00C7	; 0x8000c7 <alarmPos>
    1050:	21 30       	cpi	r18, 0x01	; 1
    1052:	79 f0       	breq	.+30     	; 0x1072 <main+0x1f8>
    1054:	18 f0       	brcs	.+6      	; 0x105c <main+0x1e2>
    1056:	22 30       	cpi	r18, 0x02	; 2
    1058:	b9 f0       	breq	.+46     	; 0x1088 <main+0x20e>
    105a:	20 c0       	rjmp	.+64     	; 0x109c <main+0x222>
					case 0:
					hh++;
    105c:	20 91 ce 00 	lds	r18, 0x00CE	; 0x8000ce <hh>
    1060:	2f 5f       	subi	r18, 0xFF	; 255
					if(hh >= 24) hh = 0;
    1062:	28 31       	cpi	r18, 0x18	; 24
    1064:	18 f4       	brcc	.+6      	; 0x106c <main+0x1f2>
				break;
				
				case 3: // Set time
				switch(alarmPos){
					case 0:
					hh++;
    1066:	20 93 ce 00 	sts	0x00CE, r18	; 0x8000ce <hh>
    106a:	18 c0       	rjmp	.+48     	; 0x109c <main+0x222>
					if(hh >= 24) hh = 0;
    106c:	10 92 ce 00 	sts	0x00CE, r1	; 0x8000ce <hh>
    1070:	15 c0       	rjmp	.+42     	; 0x109c <main+0x222>
					break;
					case 1:
					mm++;
    1072:	20 91 cd 00 	lds	r18, 0x00CD	; 0x8000cd <mm>
    1076:	2f 5f       	subi	r18, 0xFF	; 255
					if(mm >= 60) mm = 0;
    1078:	2c 33       	cpi	r18, 0x3C	; 60
    107a:	18 f4       	brcc	.+6      	; 0x1082 <main+0x208>
					case 0:
					hh++;
					if(hh >= 24) hh = 0;
					break;
					case 1:
					mm++;
    107c:	20 93 cd 00 	sts	0x00CD, r18	; 0x8000cd <mm>
    1080:	0d c0       	rjmp	.+26     	; 0x109c <main+0x222>
					if(mm >= 60) mm = 0;
    1082:	10 92 cd 00 	sts	0x00CD, r1	; 0x8000cd <mm>
    1086:	0a c0       	rjmp	.+20     	; 0x109c <main+0x222>
					break;
					case 2:
					ss++;
    1088:	20 91 cc 00 	lds	r18, 0x00CC	; 0x8000cc <ss>
    108c:	2f 5f       	subi	r18, 0xFF	; 255
					if(ss >= 60) ss = 0;
    108e:	2c 33       	cpi	r18, 0x3C	; 60
    1090:	18 f4       	brcc	.+6      	; 0x1098 <main+0x21e>
					case 1:
					mm++;
					if(mm >= 60) mm = 0;
					break;
					case 2:
					ss++;
    1092:	20 93 cc 00 	sts	0x00CC, r18	; 0x8000cc <ss>
    1096:	02 c0       	rjmp	.+4      	; 0x109c <main+0x222>
					if(ss >= 60) ss = 0;
    1098:	10 92 cc 00 	sts	0x00CC, r1	; 0x8000cc <ss>
					break;
				}
				break;
			}
		}
		if((~PINC & (1<<buttonDown))  && blBtnDown){
    109c:	9b 99       	sbic	0x13, 3	; 19
    109e:	7f c0       	rjmp	.+254    	; 0x119e <main+0x324>
    10a0:	27 2f       	mov	r18, r23
    10a2:	30 e0       	ldi	r19, 0x00	; 0
    10a4:	49 2f       	mov	r20, r25
    10a6:	50 e0       	ldi	r21, 0x00	; 0
    10a8:	40 95       	com	r20
    10aa:	50 95       	com	r21
    10ac:	48 70       	andi	r20, 0x08	; 8
    10ae:	55 27       	eor	r21, r21
    10b0:	24 1b       	sub	r18, r20
    10b2:	35 0b       	sbc	r19, r21
    10b4:	a9 01       	movw	r20, r18
    10b6:	22 f4       	brpl	.+8      	; 0x10c0 <main+0x246>
    10b8:	44 27       	eor	r20, r20
    10ba:	55 27       	eor	r21, r21
    10bc:	42 1b       	sub	r20, r18
    10be:	53 0b       	sbc	r21, r19
    10c0:	44 23       	and	r20, r20
    10c2:	09 f4       	brne	.+2      	; 0x10c6 <main+0x24c>
    10c4:	6c c0       	rjmp	.+216    	; 0x119e <main+0x324>
			switch(CLOCK_MODE){
    10c6:	90 91 cb 00 	lds	r25, 0x00CB	; 0x8000cb <CLOCK_MODE>
    10ca:	92 30       	cpi	r25, 0x02	; 2
    10cc:	59 f0       	breq	.+22     	; 0x10e4 <main+0x26a>
    10ce:	93 30       	cpi	r25, 0x03	; 3
    10d0:	c1 f1       	breq	.+112    	; 0x1142 <main+0x2c8>
    10d2:	91 30       	cpi	r25, 0x01	; 1
    10d4:	09 f0       	breq	.+2      	; 0x10d8 <main+0x25e>
    10d6:	63 c0       	rjmp	.+198    	; 0x119e <main+0x324>
				case 1: // Menu
					menuPos++;
    10d8:	23 94       	inc	r2
					if(menuPos >= MENU_COUNT) menuPos = 0;
    10da:	92 15       	cp	r25, r2
    10dc:	08 f0       	brcs	.+2      	; 0x10e0 <main+0x266>
    10de:	5f c0       	rjmp	.+190    	; 0x119e <main+0x324>
    10e0:	21 2c       	mov	r2, r1
    10e2:	5d c0       	rjmp	.+186    	; 0x119e <main+0x324>
				break;
				case 2:  // Alarm
					switch(alarmPos){
    10e4:	90 91 c7 00 	lds	r25, 0x00C7	; 0x8000c7 <alarmPos>
    10e8:	91 30       	cpi	r25, 0x01	; 1
    10ea:	89 f0       	breq	.+34     	; 0x110e <main+0x294>
    10ec:	18 f0       	brcs	.+6      	; 0x10f4 <main+0x27a>
    10ee:	92 30       	cpi	r25, 0x02	; 2
    10f0:	d9 f0       	breq	.+54     	; 0x1128 <main+0x2ae>
    10f2:	55 c0       	rjmp	.+170    	; 0x119e <main+0x324>
						case 0:
							if(alarmHrs == 0) alarmHrs = 24;
    10f4:	90 91 ca 00 	lds	r25, 0x00CA	; 0x8000ca <alarmHrs>
    10f8:	91 11       	cpse	r25, r1
    10fa:	03 c0       	rjmp	.+6      	; 0x1102 <main+0x288>
    10fc:	e8 e1       	ldi	r30, 0x18	; 24
    10fe:	e0 93 ca 00 	sts	0x00CA, r30	; 0x8000ca <alarmHrs>
							alarmHrs--;
    1102:	90 91 ca 00 	lds	r25, 0x00CA	; 0x8000ca <alarmHrs>
    1106:	91 50       	subi	r25, 0x01	; 1
    1108:	90 93 ca 00 	sts	0x00CA, r25	; 0x8000ca <alarmHrs>
						break;
    110c:	48 c0       	rjmp	.+144    	; 0x119e <main+0x324>
						case 1:
							if(alarmMin == 0) alarmMin = 60;
    110e:	90 91 c9 00 	lds	r25, 0x00C9	; 0x8000c9 <alarmMin>
    1112:	91 11       	cpse	r25, r1
    1114:	03 c0       	rjmp	.+6      	; 0x111c <main+0x2a2>
    1116:	fc e3       	ldi	r31, 0x3C	; 60
    1118:	f0 93 c9 00 	sts	0x00C9, r31	; 0x8000c9 <alarmMin>
							alarmMin--;
    111c:	90 91 c9 00 	lds	r25, 0x00C9	; 0x8000c9 <alarmMin>
    1120:	91 50       	subi	r25, 0x01	; 1
    1122:	90 93 c9 00 	sts	0x00C9, r25	; 0x8000c9 <alarmMin>
						break;
    1126:	3b c0       	rjmp	.+118    	; 0x119e <main+0x324>
						case 2:
							if(alarmSecs == 0) alarmSecs = 60;
    1128:	90 91 c8 00 	lds	r25, 0x00C8	; 0x8000c8 <alarmSecs>
    112c:	91 11       	cpse	r25, r1
    112e:	03 c0       	rjmp	.+6      	; 0x1136 <main+0x2bc>
    1130:	9c e3       	ldi	r25, 0x3C	; 60
    1132:	90 93 c8 00 	sts	0x00C8, r25	; 0x8000c8 <alarmSecs>
							alarmSecs--;
    1136:	90 91 c8 00 	lds	r25, 0x00C8	; 0x8000c8 <alarmSecs>
    113a:	91 50       	subi	r25, 0x01	; 1
    113c:	90 93 c8 00 	sts	0x00C8, r25	; 0x8000c8 <alarmSecs>
						break;
    1140:	2e c0       	rjmp	.+92     	; 0x119e <main+0x324>
					}
				break;
				
				case 3:  // Set time
				switch(alarmPos){
    1142:	90 91 c7 00 	lds	r25, 0x00C7	; 0x8000c7 <alarmPos>
    1146:	91 30       	cpi	r25, 0x01	; 1
    1148:	89 f0       	breq	.+34     	; 0x116c <main+0x2f2>
    114a:	18 f0       	brcs	.+6      	; 0x1152 <main+0x2d8>
    114c:	92 30       	cpi	r25, 0x02	; 2
    114e:	d9 f0       	breq	.+54     	; 0x1186 <main+0x30c>
    1150:	26 c0       	rjmp	.+76     	; 0x119e <main+0x324>
					case 0:
					if(hh == 0) hh = 24;
    1152:	90 91 ce 00 	lds	r25, 0x00CE	; 0x8000ce <hh>
    1156:	91 11       	cpse	r25, r1
    1158:	03 c0       	rjmp	.+6      	; 0x1160 <main+0x2e6>
    115a:	e8 e1       	ldi	r30, 0x18	; 24
    115c:	e0 93 ce 00 	sts	0x00CE, r30	; 0x8000ce <hh>
					hh--;
    1160:	90 91 ce 00 	lds	r25, 0x00CE	; 0x8000ce <hh>
    1164:	91 50       	subi	r25, 0x01	; 1
    1166:	90 93 ce 00 	sts	0x00CE, r25	; 0x8000ce <hh>
					break;
    116a:	19 c0       	rjmp	.+50     	; 0x119e <main+0x324>
					case 1:
					if(mm == 0) mm = 60;
    116c:	90 91 cd 00 	lds	r25, 0x00CD	; 0x8000cd <mm>
    1170:	91 11       	cpse	r25, r1
    1172:	03 c0       	rjmp	.+6      	; 0x117a <main+0x300>
    1174:	fc e3       	ldi	r31, 0x3C	; 60
    1176:	f0 93 cd 00 	sts	0x00CD, r31	; 0x8000cd <mm>
					mm--;
    117a:	90 91 cd 00 	lds	r25, 0x00CD	; 0x8000cd <mm>
    117e:	91 50       	subi	r25, 0x01	; 1
    1180:	90 93 cd 00 	sts	0x00CD, r25	; 0x8000cd <mm>
					break;
    1184:	0c c0       	rjmp	.+24     	; 0x119e <main+0x324>
					case 2:
					if(ss == 0) ss = 60;
    1186:	90 91 cc 00 	lds	r25, 0x00CC	; 0x8000cc <ss>
    118a:	91 11       	cpse	r25, r1
    118c:	03 c0       	rjmp	.+6      	; 0x1194 <main+0x31a>
    118e:	9c e3       	ldi	r25, 0x3C	; 60
    1190:	90 93 cc 00 	sts	0x00CC, r25	; 0x8000cc <ss>
					ss--;
    1194:	90 91 cc 00 	lds	r25, 0x00CC	; 0x8000cc <ss>
    1198:	91 50       	subi	r25, 0x01	; 1
    119a:	90 93 cc 00 	sts	0x00CC, r25	; 0x8000cc <ss>
				}
				break;
			}
		}
		
		if((~PINC & (1 << buttonMode) ) && blBtnMode && !dBtnAccept){
    119e:	99 99       	sbic	0x13, 1	; 19
    11a0:	1c c0       	rjmp	.+56     	; 0x11da <main+0x360>
    11a2:	b0 e0       	ldi	r27, 0x00	; 0
    11a4:	90 e0       	ldi	r25, 0x00	; 0
    11a6:	80 95       	com	r24
    11a8:	90 95       	com	r25
    11aa:	82 70       	andi	r24, 0x02	; 2
    11ac:	99 27       	eor	r25, r25
    11ae:	a8 1b       	sub	r26, r24
    11b0:	b9 0b       	sbc	r27, r25
    11b2:	cd 01       	movw	r24, r26
    11b4:	22 f4       	brpl	.+8      	; 0x11be <main+0x344>
    11b6:	88 27       	eor	r24, r24
    11b8:	99 27       	eor	r25, r25
    11ba:	8a 1b       	sub	r24, r26
    11bc:	9b 0b       	sbc	r25, r27
    11be:	88 23       	and	r24, r24
    11c0:	61 f0       	breq	.+24     	; 0x11da <main+0x360>
    11c2:	66 23       	and	r22, r22
    11c4:	51 f0       	breq	.+20     	; 0x11da <main+0x360>
			if(CLOCK_MODE > 0){
    11c6:	80 91 cb 00 	lds	r24, 0x00CB	; 0x8000cb <CLOCK_MODE>
    11ca:	88 23       	and	r24, r24
    11cc:	19 f0       	breq	.+6      	; 0x11d4 <main+0x35a>
				CLOCK_MODE = 0;
    11ce:	10 92 cb 00 	sts	0x00CB, r1	; 0x8000cb <CLOCK_MODE>
    11d2:	02 c0       	rjmp	.+4      	; 0x11d8 <main+0x35e>
			}else{
				CLOCK_MODE = 1;
    11d4:	30 92 cb 00 	sts	0x00CB, r3	; 0x8000cb <CLOCK_MODE>
			}
			clearScr();
    11d8:	40 dd       	rcall	.-1408   	; 0xc5a <clearScr>
		}
		
		if((~PINC & (1 << buttonAccept)) && blBtnAccept){
    11da:	98 99       	sbic	0x13, 0	; 19
    11dc:	91 c0       	rjmp	.+290    	; 0x1300 <main+0x486>
    11de:	86 2d       	mov	r24, r6
    11e0:	90 e0       	ldi	r25, 0x00	; 0
    11e2:	43 24       	eor	r4, r3
    11e4:	40 fa       	bst	r4, 0
    11e6:	cc 24       	eor	r12, r12
    11e8:	c0 f8       	bld	r12, 0
    11ea:	d1 2c       	mov	r13, r1
    11ec:	8c 19       	sub	r24, r12
    11ee:	9d 09       	sbc	r25, r13
    11f0:	9c 01       	movw	r18, r24
    11f2:	22 f4       	brpl	.+8      	; 0x11fc <main+0x382>
    11f4:	22 27       	eor	r18, r18
    11f6:	33 27       	eor	r19, r19
    11f8:	28 1b       	sub	r18, r24
    11fa:	39 0b       	sbc	r19, r25
    11fc:	22 23       	and	r18, r18
    11fe:	09 f4       	brne	.+2      	; 0x1202 <main+0x388>
    1200:	7f c0       	rjmp	.+254    	; 0x1300 <main+0x486>
			switch(CLOCK_MODE){
    1202:	80 91 cb 00 	lds	r24, 0x00CB	; 0x8000cb <CLOCK_MODE>
    1206:	82 30       	cpi	r24, 0x02	; 2
    1208:	c1 f0       	breq	.+48     	; 0x123a <main+0x3c0>
    120a:	83 30       	cpi	r24, 0x03	; 3
    120c:	09 f4       	brne	.+2      	; 0x1210 <main+0x396>
    120e:	46 c0       	rjmp	.+140    	; 0x129c <main+0x422>
    1210:	81 30       	cpi	r24, 0x01	; 1
    1212:	09 f0       	breq	.+2      	; 0x1216 <main+0x39c>
    1214:	4f c0       	rjmp	.+158    	; 0x12b4 <main+0x43a>
				case 1: // Settings menu
				
					switch(menuPos){
    1216:	22 20       	and	r2, r2
    1218:	21 f0       	breq	.+8      	; 0x1222 <main+0x3a8>
    121a:	e1 e0       	ldi	r30, 0x01	; 1
    121c:	2e 16       	cp	r2, r30
    121e:	41 f0       	breq	.+16     	; 0x1230 <main+0x3b6>
    1220:	6f c0       	rjmp	.+222    	; 0x1300 <main+0x486>
						case 0: // Alarm menu setup
							alarmPos = 0;
    1222:	10 92 c7 00 	sts	0x00C7, r1	; 0x8000c7 <alarmPos>
							CLOCK_MODE = 2;
    1226:	82 e0       	ldi	r24, 0x02	; 2
    1228:	80 93 cb 00 	sts	0x00CB, r24	; 0x8000cb <CLOCK_MODE>
							clearScr();
    122c:	16 dd       	rcall	.-1492   	; 0xc5a <clearScr>
						break;
    122e:	68 c0       	rjmp	.+208    	; 0x1300 <main+0x486>
						case 1: // Clock menu setup
							CLOCK_MODE = 3;
    1230:	83 e0       	ldi	r24, 0x03	; 3
    1232:	80 93 cb 00 	sts	0x00CB, r24	; 0x8000cb <CLOCK_MODE>
							clearScr();
    1236:	11 dd       	rcall	.-1502   	; 0xc5a <clearScr>
						break;
    1238:	63 c0       	rjmp	.+198    	; 0x1300 <main+0x486>
					}
				
				break;
				case 2: // Alarm setup menu
					if(dBtnMode){ // Disable alarm
    123a:	11 23       	and	r17, r17
    123c:	39 f0       	breq	.+14     	; 0x124c <main+0x3d2>
						alarmEnabled = 0;
    123e:	10 92 67 00 	sts	0x0067, r1	; 0x800067 <alarmEnabled>
						alarmPos = 0;
    1242:	10 92 c7 00 	sts	0x00C7, r1	; 0x8000c7 <alarmPos>
						clearScr();
    1246:	09 dd       	rcall	.-1518   	; 0xc5a <clearScr>
						CLOCK_MODE = 0;
    1248:	10 92 cb 00 	sts	0x00CB, r1	; 0x8000cb <CLOCK_MODE>
					}
					alarmPos++;
    124c:	80 91 c7 00 	lds	r24, 0x00C7	; 0x8000c7 <alarmPos>
    1250:	8f 5f       	subi	r24, 0xFF	; 255
					if(alarmPos > 2) {
    1252:	83 30       	cpi	r24, 0x03	; 3
    1254:	18 f4       	brcc	.+6      	; 0x125c <main+0x3e2>
						alarmEnabled = 0;
						alarmPos = 0;
						clearScr();
						CLOCK_MODE = 0;
					}
					alarmPos++;
    1256:	80 93 c7 00 	sts	0x00C7, r24	; 0x8000c7 <alarmPos>
    125a:	52 c0       	rjmp	.+164    	; 0x1300 <main+0x486>
					if(alarmPos > 2) {
						alarmPos = 0;
    125c:	10 92 c7 00 	sts	0x00C7, r1	; 0x8000c7 <alarmPos>
						alarmEnabled = 1; // Enable alarm
    1260:	30 92 67 00 	sts	0x0067, r3	; 0x800067 <alarmEnabled>
						
						if(alarmHrs <= hh) alarmFlag = 1;
    1264:	90 91 ca 00 	lds	r25, 0x00CA	; 0x8000ca <alarmHrs>
    1268:	80 91 ce 00 	lds	r24, 0x00CE	; 0x8000ce <hh>
    126c:	89 17       	cp	r24, r25
    126e:	10 f0       	brcs	.+4      	; 0x1274 <main+0x3fa>
    1270:	30 92 c5 00 	sts	0x00C5, r3	; 0x8000c5 <alarmFlag>
						if(alarmMin <= mm) alarmFlag = 1;
    1274:	90 91 c9 00 	lds	r25, 0x00C9	; 0x8000c9 <alarmMin>
    1278:	80 91 cd 00 	lds	r24, 0x00CD	; 0x8000cd <mm>
    127c:	89 17       	cp	r24, r25
    127e:	10 f0       	brcs	.+4      	; 0x1284 <main+0x40a>
    1280:	30 92 c5 00 	sts	0x00C5, r3	; 0x8000c5 <alarmFlag>
						if(alarmSecs <= ss) alarmFlag = 1;
    1284:	90 91 c8 00 	lds	r25, 0x00C8	; 0x8000c8 <alarmSecs>
    1288:	80 91 cc 00 	lds	r24, 0x00CC	; 0x8000cc <ss>
    128c:	89 17       	cp	r24, r25
    128e:	10 f0       	brcs	.+4      	; 0x1294 <main+0x41a>
    1290:	30 92 c5 00 	sts	0x00C5, r3	; 0x8000c5 <alarmFlag>
						
						clearScr();
    1294:	e2 dc       	rcall	.-1596   	; 0xc5a <clearScr>
						CLOCK_MODE = 0;
    1296:	10 92 cb 00 	sts	0x00CB, r1	; 0x8000cb <CLOCK_MODE>
    129a:	45 c0       	rjmp	.+138    	; 0x1326 <main+0x4ac>
					}
				break;
				case 3: // Clock menu
					alarmPos++;
    129c:	80 91 c7 00 	lds	r24, 0x00C7	; 0x8000c7 <alarmPos>
    12a0:	8f 5f       	subi	r24, 0xFF	; 255
    12a2:	80 93 c7 00 	sts	0x00C7, r24	; 0x8000c7 <alarmPos>
					if(alarmPos > 2 && !dBtnMode) alarmPos = 0;
    12a6:	83 30       	cpi	r24, 0x03	; 3
    12a8:	78 f1       	brcs	.+94     	; 0x1308 <main+0x48e>
    12aa:	11 11       	cpse	r17, r1
    12ac:	2d c0       	rjmp	.+90     	; 0x1308 <main+0x48e>
    12ae:	10 92 c7 00 	sts	0x00C7, r1	; 0x8000c7 <alarmPos>
    12b2:	2a c0       	rjmp	.+84     	; 0x1308 <main+0x48e>
				break;
				default:
					// Disable alarm
					if(alarmEnabled && hh >= alarmHrs && mm >= alarmMin && (ss >= alarmSecs || mm > alarmMin) && !alarmFlag) {
    12b4:	80 91 67 00 	lds	r24, 0x0067	; 0x800067 <alarmEnabled>
    12b8:	88 23       	and	r24, r24
    12ba:	11 f1       	breq	.+68     	; 0x1300 <main+0x486>
    12bc:	90 91 ce 00 	lds	r25, 0x00CE	; 0x8000ce <hh>
    12c0:	80 91 ca 00 	lds	r24, 0x00CA	; 0x8000ca <alarmHrs>
    12c4:	98 17       	cp	r25, r24
    12c6:	e0 f0       	brcs	.+56     	; 0x1300 <main+0x486>
    12c8:	90 91 cd 00 	lds	r25, 0x00CD	; 0x8000cd <mm>
    12cc:	80 91 c9 00 	lds	r24, 0x00C9	; 0x8000c9 <alarmMin>
    12d0:	98 17       	cp	r25, r24
    12d2:	b0 f0       	brcs	.+44     	; 0x1300 <main+0x486>
    12d4:	30 91 cc 00 	lds	r19, 0x00CC	; 0x8000cc <ss>
    12d8:	20 91 c8 00 	lds	r18, 0x00C8	; 0x8000c8 <alarmSecs>
    12dc:	32 17       	cp	r19, r18
    12de:	10 f4       	brcc	.+4      	; 0x12e4 <main+0x46a>
    12e0:	89 17       	cp	r24, r25
    12e2:	70 f4       	brcc	.+28     	; 0x1300 <main+0x486>
    12e4:	80 91 c5 00 	lds	r24, 0x00C5	; 0x8000c5 <alarmFlag>
    12e8:	81 11       	cpse	r24, r1
    12ea:	0a c0       	rjmp	.+20     	; 0x1300 <main+0x486>
						alarmTime = 0;
    12ec:	10 92 c6 00 	sts	0x00C6, r1	; 0x8000c6 <alarmTime>
						alarmEnabled = 0;
    12f0:	10 92 67 00 	sts	0x0067, r1	; 0x800067 <alarmEnabled>
						TCCR0 = 0;
    12f4:	13 be       	out	0x33, r1	; 51
						bit = 0;
    12f6:	10 92 c3 00 	sts	0x00C3, r1	; 0x8000c3 <bit>
						note = 0;
    12fa:	10 92 c2 00 	sts	0x00C2, r1	; 0x8000c2 <__data_end>
						PORTC &= ~(1 << soundSpeaker);
    12fe:	a9 98       	cbi	0x15, 1	; 21
				break;
			}
		}
		
		// Set timer to 0, for not clicking while changing time
		if(CLOCK_MODE == 3) TCNT1 = 0;
    1300:	80 91 cb 00 	lds	r24, 0x00CB	; 0x8000cb <CLOCK_MODE>
    1304:	83 30       	cpi	r24, 0x03	; 3
    1306:	11 f4       	brne	.+4      	; 0x130c <main+0x492>
    1308:	1d bc       	out	0x2d, r1	; 45
    130a:	1c bc       	out	0x2c, r1	; 44
		
		// Drawable
		switch(CLOCK_MODE)
    130c:	80 91 cb 00 	lds	r24, 0x00CB	; 0x8000cb <CLOCK_MODE>
    1310:	81 30       	cpi	r24, 0x01	; 1
    1312:	09 f4       	brne	.+2      	; 0x1316 <main+0x49c>
    1314:	8f c0       	rjmp	.+286    	; 0x1434 <main+0x5ba>
    1316:	38 f0       	brcs	.+14     	; 0x1326 <main+0x4ac>
    1318:	82 30       	cpi	r24, 0x02	; 2
    131a:	09 f4       	brne	.+2      	; 0x131e <main+0x4a4>
    131c:	bb c0       	rjmp	.+374    	; 0x1494 <main+0x61a>
    131e:	83 30       	cpi	r24, 0x03	; 3
    1320:	09 f4       	brne	.+2      	; 0x1324 <main+0x4aa>
    1322:	32 c1       	rjmp	.+612    	; 0x1588 <main+0x70e>
    1324:	aa c1       	rjmp	.+852    	; 0x167a <main+0x800>
    } else if (__radix < 2 || __radix > 36) {
	*__s = 0;
	return __s;
    } else {
	extern char *__itoa_ncheck (int, char *, unsigned char);
	return __itoa_ncheck (__val, __s, __radix);
    1326:	80 91 ce 00 	lds	r24, 0x00CE	; 0x8000ce <hh>
    132a:	4a e0       	ldi	r20, 0x0A	; 10
    132c:	be 01       	movw	r22, r28
    132e:	6f 5f       	subi	r22, 0xFF	; 255
    1330:	7f 4f       	sbci	r23, 0xFF	; 255
    1332:	90 e0       	ldi	r25, 0x00	; 0
    1334:	e9 d2       	rcall	.+1490   	; 0x1908 <__itoa_ncheck>
    1336:	80 91 cd 00 	lds	r24, 0x00CD	; 0x8000cd <mm>
    133a:	4a e0       	ldi	r20, 0x0A	; 10
    133c:	be 01       	movw	r22, r28
    133e:	6c 5f       	subi	r22, 0xFC	; 252
    1340:	7f 4f       	sbci	r23, 0xFF	; 255
    1342:	90 e0       	ldi	r25, 0x00	; 0
    1344:	e1 d2       	rcall	.+1474   	; 0x1908 <__itoa_ncheck>
    1346:	80 91 cc 00 	lds	r24, 0x00CC	; 0x8000cc <ss>
    134a:	4a e0       	ldi	r20, 0x0A	; 10
    134c:	be 01       	movw	r22, r28
    134e:	69 5f       	subi	r22, 0xF9	; 249
    1350:	7f 4f       	sbci	r23, 0xFF	; 255
    1352:	90 e0       	ldi	r25, 0x00	; 0
    1354:	d9 d2       	rcall	.+1458   	; 0x1908 <__itoa_ncheck>
				itoa(mm,chaM, 10);
				itoa(ss,chaS, 10);
			
			
			
				if(hh < 10){
    1356:	80 91 ce 00 	lds	r24, 0x00CE	; 0x8000ce <hh>
    135a:	8a 30       	cpi	r24, 0x0A	; 10
    135c:	48 f4       	brcc	.+18     	; 0x1370 <main+0x4f6>
					strcpy(HMS, "0");
    135e:	f7 01       	movw	r30, r14
    1360:	91 82       	std	Z+1, r9	; 0x01
    1362:	80 82       	st	Z, r8
					strcat(HMS,chaH);
    1364:	be 01       	movw	r22, r28
    1366:	6f 5f       	subi	r22, 0xFF	; 255
    1368:	7f 4f       	sbci	r23, 0xFF	; 255
    136a:	c7 01       	movw	r24, r14
    136c:	bb d2       	rcall	.+1398   	; 0x18e4 <strcat>
    136e:	05 c0       	rjmp	.+10     	; 0x137a <main+0x500>
				}else
				strcpy(HMS,chaH);
    1370:	be 01       	movw	r22, r28
    1372:	6f 5f       	subi	r22, 0xFF	; 255
    1374:	7f 4f       	sbci	r23, 0xFF	; 255
    1376:	c7 01       	movw	r24, r14
    1378:	c0 d2       	rcall	.+1408   	; 0x18fa <strcpy>
				strcat(HMS,":");
    137a:	f7 01       	movw	r30, r14
    137c:	01 90       	ld	r0, Z+
    137e:	00 20       	and	r0, r0
    1380:	e9 f7       	brne	.-6      	; 0x137c <main+0x502>
    1382:	31 97       	sbiw	r30, 0x01	; 1
    1384:	b1 82       	std	Z+1, r11	; 0x01
    1386:	a0 82       	st	Z, r10
			
				if(mm < 10)
    1388:	80 91 cd 00 	lds	r24, 0x00CD	; 0x8000cd <mm>
    138c:	8a 30       	cpi	r24, 0x0A	; 10
    138e:	38 f4       	brcc	.+14     	; 0x139e <main+0x524>
				strcat(HMS,"0");
    1390:	f7 01       	movw	r30, r14
    1392:	01 90       	ld	r0, Z+
    1394:	00 20       	and	r0, r0
    1396:	e9 f7       	brne	.-6      	; 0x1392 <main+0x518>
    1398:	31 97       	sbiw	r30, 0x01	; 1
    139a:	91 82       	std	Z+1, r9	; 0x01
    139c:	80 82       	st	Z, r8
				strcat(HMS, chaM);
    139e:	be 01       	movw	r22, r28
    13a0:	6c 5f       	subi	r22, 0xFC	; 252
    13a2:	7f 4f       	sbci	r23, 0xFF	; 255
    13a4:	c7 01       	movw	r24, r14
    13a6:	9e d2       	rcall	.+1340   	; 0x18e4 <strcat>
				strcat(HMS, ":");
    13a8:	f7 01       	movw	r30, r14
    13aa:	01 90       	ld	r0, Z+
    13ac:	00 20       	and	r0, r0
    13ae:	e9 f7       	brne	.-6      	; 0x13aa <main+0x530>
    13b0:	31 97       	sbiw	r30, 0x01	; 1
    13b2:	b1 82       	std	Z+1, r11	; 0x01
    13b4:	a0 82       	st	Z, r10
			
				if(ss < 10)
    13b6:	80 91 cc 00 	lds	r24, 0x00CC	; 0x8000cc <ss>
    13ba:	8a 30       	cpi	r24, 0x0A	; 10
    13bc:	38 f4       	brcc	.+14     	; 0x13cc <main+0x552>
				strcat(HMS,"0");
    13be:	f7 01       	movw	r30, r14
    13c0:	01 90       	ld	r0, Z+
    13c2:	00 20       	and	r0, r0
    13c4:	e9 f7       	brne	.-6      	; 0x13c0 <main+0x546>
    13c6:	31 97       	sbiw	r30, 0x01	; 1
    13c8:	91 82       	std	Z+1, r9	; 0x01
    13ca:	80 82       	st	Z, r8
				strcat(HMS, chaS);
    13cc:	be 01       	movw	r22, r28
    13ce:	69 5f       	subi	r22, 0xF9	; 249
    13d0:	7f 4f       	sbci	r23, 0xFF	; 255
    13d2:	c7 01       	movw	r24, r14
    13d4:	87 d2       	rcall	.+1294   	; 0x18e4 <strcat>
			
				// Draw Time
				clearBuff();
    13d6:	39 dc       	rcall	.-1934   	; 0xc4a <clearBuff>
				drawStringCentered(HMS);
    13d8:	c7 01       	movw	r24, r14
    13da:	9b da       	rcall	.-2762   	; 0x912 <drawStringCentered>
				updateScreen(DLINE_CENTER2);
    13dc:	84 e0       	ldi	r24, 0x04	; 4
    13de:	f6 db       	rcall	.-2068   	; 0xbcc <updateScreen>
			
			
				// Draw Borders
				clearBuff();
    13e0:	34 dc       	rcall	.-1944   	; 0xc4a <clearBuff>
				drawStringCentered("----------------");
    13e2:	88 e6       	ldi	r24, 0x68	; 104
    13e4:	90 e0       	ldi	r25, 0x00	; 0
    13e6:	95 da       	rcall	.-2774   	; 0x912 <drawStringCentered>
				updateScreen(DLINE_2);
    13e8:	82 e0       	ldi	r24, 0x02	; 2
    13ea:	f0 db       	rcall	.-2080   	; 0xbcc <updateScreen>
				updateScreen(DLINE_6);
    13ec:	86 e0       	ldi	r24, 0x06	; 6
    13ee:	ee db       	rcall	.-2084   	; 0xbcc <updateScreen>
			

				clearBuff();
    13f0:	2c dc       	rcall	.-1960   	; 0xc4a <clearBuff>
				drawString(2, "");
    13f2:	69 e7       	ldi	r22, 0x79	; 121
    13f4:	70 e0       	ldi	r23, 0x00	; 0
    13f6:	82 e0       	ldi	r24, 0x02	; 2
    13f8:	90 e0       	ldi	r25, 0x00	; 0
    13fa:	78 da       	rcall	.-2832   	; 0x8ec <drawString>
				drawStringCentered("");
    13fc:	8c e7       	ldi	r24, 0x7C	; 124
    13fe:	90 e0       	ldi	r25, 0x00	; 0
    1400:	88 da       	rcall	.-2800   	; 0x912 <drawStringCentered>
				if(alarmEnabled) drawStringRight("");
    1402:	80 91 67 00 	lds	r24, 0x0067	; 0x800067 <alarmEnabled>
    1406:	88 23       	and	r24, r24
    1408:	19 f0       	breq	.+6      	; 0x1410 <main+0x596>
    140a:	81 e8       	ldi	r24, 0x81	; 129
    140c:	90 e0       	ldi	r25, 0x00	; 0
    140e:	97 da       	rcall	.-2770   	; 0x93e <drawStringRight>
				updateScreen(DLINE_0);
    1410:	80 e0       	ldi	r24, 0x00	; 0
    1412:	dc db       	rcall	.-2120   	; 0xbcc <updateScreen>
				clearBuff();
    1414:	1a dc       	rcall	.-1996   	; 0xc4a <clearBuff>
				drawString(2,"");
    1416:	64 e8       	ldi	r22, 0x84	; 132
    1418:	70 e0       	ldi	r23, 0x00	; 0
    141a:	82 e0       	ldi	r24, 0x02	; 2
    141c:	90 e0       	ldi	r25, 0x00	; 0
    141e:	66 da       	rcall	.-2868   	; 0x8ec <drawString>
				if(alarmEnabled) drawStringRight("");
    1420:	80 91 67 00 	lds	r24, 0x0067	; 0x800067 <alarmEnabled>
    1424:	88 23       	and	r24, r24
    1426:	19 f0       	breq	.+6      	; 0x142e <main+0x5b4>
    1428:	8a e8       	ldi	r24, 0x8A	; 138
    142a:	90 e0       	ldi	r25, 0x00	; 0
    142c:	88 da       	rcall	.-2800   	; 0x93e <drawStringRight>
				updateScreen(DLINE_1);
    142e:	83 2d       	mov	r24, r3
    1430:	cd db       	rcall	.-2150   	; 0xbcc <updateScreen>
			
			break;
    1432:	23 c1       	rjmp	.+582    	; 0x167a <main+0x800>
			
			/*-----------------MENU---------------*/
			case 1: // Settings menu
			
			
				clearBuff();
    1434:	0a dc       	rcall	.-2028   	; 0xc4a <clearBuff>
				drawStringCentered(":");
    1436:	8d e8       	ldi	r24, 0x8D	; 141
    1438:	90 e0       	ldi	r25, 0x00	; 0
    143a:	6b da       	rcall	.-2858   	; 0x912 <drawStringCentered>
				updateScreen(DLINE_0);
    143c:	80 e0       	ldi	r24, 0x00	; 0
    143e:	c6 db       	rcall	.-2164   	; 0xbcc <updateScreen>
				clearBuff();
    1440:	04 dc       	rcall	.-2040   	; 0xc4a <clearBuff>
				if(menuPos == 0) drawString(0,">");
    1442:	21 10       	cpse	r2, r1
    1444:	0e c0       	rjmp	.+28     	; 0x1462 <main+0x5e8>
    1446:	68 e9       	ldi	r22, 0x98	; 152
    1448:	70 e0       	ldi	r23, 0x00	; 0
    144a:	80 e0       	ldi	r24, 0x00	; 0
    144c:	90 e0       	ldi	r25, 0x00	; 0
    144e:	4e da       	rcall	.-2916   	; 0x8ec <drawString>
				drawString(8,"1. ");
    1450:	6a e9       	ldi	r22, 0x9A	; 154
    1452:	70 e0       	ldi	r23, 0x00	; 0
    1454:	88 e0       	ldi	r24, 0x08	; 8
    1456:	90 e0       	ldi	r25, 0x00	; 0
    1458:	49 da       	rcall	.-2926   	; 0x8ec <drawString>
				updateScreen(DLINE_2);
    145a:	82 e0       	ldi	r24, 0x02	; 2
    145c:	b7 db       	rcall	.-2194   	; 0xbcc <updateScreen>
				clearBuff();
    145e:	f5 db       	rcall	.-2070   	; 0xc4a <clearBuff>
    1460:	10 c0       	rjmp	.+32     	; 0x1482 <main+0x608>
				clearBuff();
				drawStringCentered(":");
				updateScreen(DLINE_0);
				clearBuff();
				if(menuPos == 0) drawString(0,">");
				drawString(8,"1. ");
    1462:	6a e9       	ldi	r22, 0x9A	; 154
    1464:	70 e0       	ldi	r23, 0x00	; 0
    1466:	88 e0       	ldi	r24, 0x08	; 8
    1468:	90 e0       	ldi	r25, 0x00	; 0
    146a:	40 da       	rcall	.-2944   	; 0x8ec <drawString>
				updateScreen(DLINE_2);
    146c:	82 e0       	ldi	r24, 0x02	; 2
    146e:	ae db       	rcall	.-2212   	; 0xbcc <updateScreen>
				clearBuff();
    1470:	ec db       	rcall	.-2088   	; 0xc4a <clearBuff>
				if(menuPos == 1) drawString(0,">");
    1472:	f1 e0       	ldi	r31, 0x01	; 1
    1474:	2f 12       	cpse	r2, r31
    1476:	05 c0       	rjmp	.+10     	; 0x1482 <main+0x608>
    1478:	68 e9       	ldi	r22, 0x98	; 152
    147a:	70 e0       	ldi	r23, 0x00	; 0
    147c:	80 e0       	ldi	r24, 0x00	; 0
    147e:	90 e0       	ldi	r25, 0x00	; 0
    1480:	35 da       	rcall	.-2966   	; 0x8ec <drawString>
				drawString(8,"2.  ");
    1482:	67 ea       	ldi	r22, 0xA7	; 167
    1484:	70 e0       	ldi	r23, 0x00	; 0
    1486:	88 e0       	ldi	r24, 0x08	; 8
    1488:	90 e0       	ldi	r25, 0x00	; 0
    148a:	30 da       	rcall	.-2976   	; 0x8ec <drawString>
				updateScreen(DLINE_CENTER1);
    148c:	83 e0       	ldi	r24, 0x03	; 3
    148e:	9e db       	rcall	.-2244   	; 0xbcc <updateScreen>
				clearBuff();
    1490:	dc db       	rcall	.-2120   	; 0xc4a <clearBuff>
			break;
    1492:	f3 c0       	rjmp	.+486    	; 0x167a <main+0x800>
    1494:	80 91 ca 00 	lds	r24, 0x00CA	; 0x8000ca <alarmHrs>
    1498:	4a e0       	ldi	r20, 0x0A	; 10
    149a:	be 01       	movw	r22, r28
    149c:	6f 5f       	subi	r22, 0xFF	; 255
    149e:	7f 4f       	sbci	r23, 0xFF	; 255
    14a0:	90 e0       	ldi	r25, 0x00	; 0
    14a2:	32 d2       	rcall	.+1124   	; 0x1908 <__itoa_ncheck>
    14a4:	80 91 c9 00 	lds	r24, 0x00C9	; 0x8000c9 <alarmMin>
    14a8:	4a e0       	ldi	r20, 0x0A	; 10
    14aa:	be 01       	movw	r22, r28
    14ac:	6c 5f       	subi	r22, 0xFC	; 252
    14ae:	7f 4f       	sbci	r23, 0xFF	; 255
    14b0:	90 e0       	ldi	r25, 0x00	; 0
    14b2:	2a d2       	rcall	.+1108   	; 0x1908 <__itoa_ncheck>
    14b4:	80 91 c8 00 	lds	r24, 0x00C8	; 0x8000c8 <alarmSecs>
    14b8:	4a e0       	ldi	r20, 0x0A	; 10
    14ba:	be 01       	movw	r22, r28
    14bc:	69 5f       	subi	r22, 0xF9	; 249
    14be:	7f 4f       	sbci	r23, 0xFF	; 255
    14c0:	90 e0       	ldi	r25, 0x00	; 0
    14c2:	22 d2       	rcall	.+1092   	; 0x1908 <__itoa_ncheck>
			case 2:
				itoa(alarmHrs, chaH, 10);
				itoa(alarmMin, chaM, 10);
				itoa(alarmSecs, chaS, 10);
				
				if(alarmHrs < 10){
    14c4:	80 91 ca 00 	lds	r24, 0x00CA	; 0x8000ca <alarmHrs>
    14c8:	8a 30       	cpi	r24, 0x0A	; 10
    14ca:	48 f4       	brcc	.+18     	; 0x14de <main+0x664>
					strcpy(HMS, "0");
    14cc:	f7 01       	movw	r30, r14
    14ce:	91 82       	std	Z+1, r9	; 0x01
    14d0:	80 82       	st	Z, r8
					strcat(HMS,chaH);
    14d2:	be 01       	movw	r22, r28
    14d4:	6f 5f       	subi	r22, 0xFF	; 255
    14d6:	7f 4f       	sbci	r23, 0xFF	; 255
    14d8:	c7 01       	movw	r24, r14
    14da:	04 d2       	rcall	.+1032   	; 0x18e4 <strcat>
    14dc:	05 c0       	rjmp	.+10     	; 0x14e8 <main+0x66e>
				}else
				strcpy(HMS,chaH);
    14de:	be 01       	movw	r22, r28
    14e0:	6f 5f       	subi	r22, 0xFF	; 255
    14e2:	7f 4f       	sbci	r23, 0xFF	; 255
    14e4:	c7 01       	movw	r24, r14
    14e6:	09 d2       	rcall	.+1042   	; 0x18fa <strcpy>
				strcat(HMS,":");
    14e8:	f7 01       	movw	r30, r14
    14ea:	01 90       	ld	r0, Z+
    14ec:	00 20       	and	r0, r0
    14ee:	e9 f7       	brne	.-6      	; 0x14ea <main+0x670>
    14f0:	31 97       	sbiw	r30, 0x01	; 1
    14f2:	b1 82       	std	Z+1, r11	; 0x01
    14f4:	a0 82       	st	Z, r10
				
				if(alarmMin < 10)
    14f6:	80 91 c9 00 	lds	r24, 0x00C9	; 0x8000c9 <alarmMin>
    14fa:	8a 30       	cpi	r24, 0x0A	; 10
    14fc:	38 f4       	brcc	.+14     	; 0x150c <main+0x692>
				strcat(HMS,"0");
    14fe:	f7 01       	movw	r30, r14
    1500:	01 90       	ld	r0, Z+
    1502:	00 20       	and	r0, r0
    1504:	e9 f7       	brne	.-6      	; 0x1500 <main+0x686>
    1506:	31 97       	sbiw	r30, 0x01	; 1
    1508:	91 82       	std	Z+1, r9	; 0x01
    150a:	80 82       	st	Z, r8
				strcat(HMS, chaM);
    150c:	be 01       	movw	r22, r28
    150e:	6c 5f       	subi	r22, 0xFC	; 252
    1510:	7f 4f       	sbci	r23, 0xFF	; 255
    1512:	c7 01       	movw	r24, r14
    1514:	e7 d1       	rcall	.+974    	; 0x18e4 <strcat>
				strcat(HMS, ":");
    1516:	f7 01       	movw	r30, r14
    1518:	01 90       	ld	r0, Z+
    151a:	00 20       	and	r0, r0
    151c:	e9 f7       	brne	.-6      	; 0x1518 <main+0x69e>
    151e:	31 97       	sbiw	r30, 0x01	; 1
    1520:	b1 82       	std	Z+1, r11	; 0x01
    1522:	a0 82       	st	Z, r10
				
				if(alarmSecs < 10)
    1524:	80 91 c8 00 	lds	r24, 0x00C8	; 0x8000c8 <alarmSecs>
    1528:	8a 30       	cpi	r24, 0x0A	; 10
    152a:	38 f4       	brcc	.+14     	; 0x153a <main+0x6c0>
				strcat(HMS,"0");
    152c:	f7 01       	movw	r30, r14
    152e:	01 90       	ld	r0, Z+
    1530:	00 20       	and	r0, r0
    1532:	e9 f7       	brne	.-6      	; 0x152e <main+0x6b4>
    1534:	31 97       	sbiw	r30, 0x01	; 1
    1536:	91 82       	std	Z+1, r9	; 0x01
    1538:	80 82       	st	Z, r8
				strcat(HMS, chaS);
    153a:	be 01       	movw	r22, r28
    153c:	69 5f       	subi	r22, 0xF9	; 249
    153e:	7f 4f       	sbci	r23, 0xFF	; 255
    1540:	c7 01       	movw	r24, r14
    1542:	d0 d1       	rcall	.+928    	; 0x18e4 <strcat>
			
				clearBuff();
    1544:	82 db       	rcall	.-2300   	; 0xc4a <clearBuff>
				drawStringCentered(" ");
    1546:	84 eb       	ldi	r24, 0xB4	; 180
    1548:	90 e0       	ldi	r25, 0x00	; 0
    154a:	e3 d9       	rcall	.-3130   	; 0x912 <drawStringCentered>
				updateScreen(DLINE_0);
    154c:	80 e0       	ldi	r24, 0x00	; 0
    154e:	3e db       	rcall	.-2436   	; 0xbcc <updateScreen>
				
				
				clearBuff();
    1550:	7c db       	rcall	.-2312   	; 0xc4a <clearBuff>
				drawStringCentered(HMS);
    1552:	c7 01       	movw	r24, r14
    1554:	de d9       	rcall	.-3140   	; 0x912 <drawStringCentered>
				updateScreen(DLINE_CENTER2);
    1556:	84 e0       	ldi	r24, 0x04	; 4
    1558:	39 db       	rcall	.-2446   	; 0xbcc <updateScreen>
				
				clearBuff();
    155a:	77 db       	rcall	.-2322   	; 0xc4a <clearBuff>
				drawString((alarmPos-1)*3*8+128/2-8,"--");
    155c:	80 91 c7 00 	lds	r24, 0x00C7	; 0x8000c7 <alarmPos>
    1560:	90 e0       	ldi	r25, 0x00	; 0
    1562:	01 97       	sbiw	r24, 0x01	; 1
    1564:	9c 01       	movw	r18, r24
    1566:	22 0f       	add	r18, r18
    1568:	33 1f       	adc	r19, r19
    156a:	82 0f       	add	r24, r18
    156c:	93 1f       	adc	r25, r19
    156e:	88 0f       	add	r24, r24
    1570:	99 1f       	adc	r25, r25
    1572:	88 0f       	add	r24, r24
    1574:	99 1f       	adc	r25, r25
    1576:	88 0f       	add	r24, r24
    1578:	99 1f       	adc	r25, r25
    157a:	66 e7       	ldi	r22, 0x76	; 118
    157c:	70 e0       	ldi	r23, 0x00	; 0
    157e:	c8 96       	adiw	r24, 0x38	; 56
    1580:	b5 d9       	rcall	.-3222   	; 0x8ec <drawString>
				updateScreen(DLINE_5);
    1582:	85 e0       	ldi	r24, 0x05	; 5
    1584:	23 db       	rcall	.-2490   	; 0xbcc <updateScreen>
				
			break;
    1586:	79 c0       	rjmp	.+242    	; 0x167a <main+0x800>
			/*------------SET TIME-------------*/
			case 3: // Time set menu
				clearBuff();
    1588:	60 db       	rcall	.-2368   	; 0xc4a <clearBuff>
				drawStringCentered(" ");
    158a:	8a ea       	ldi	r24, 0xAA	; 170
    158c:	90 e0       	ldi	r25, 0x00	; 0
    158e:	c1 d9       	rcall	.-3198   	; 0x912 <drawStringCentered>
				updateScreen(DLINE_0);
    1590:	80 e0       	ldi	r24, 0x00	; 0
    1592:	1c db       	rcall	.-2504   	; 0xbcc <updateScreen>
    1594:	80 91 ce 00 	lds	r24, 0x00CE	; 0x8000ce <hh>
    1598:	4a e0       	ldi	r20, 0x0A	; 10
    159a:	be 01       	movw	r22, r28
    159c:	6f 5f       	subi	r22, 0xFF	; 255
    159e:	7f 4f       	sbci	r23, 0xFF	; 255
    15a0:	90 e0       	ldi	r25, 0x00	; 0
    15a2:	b2 d1       	rcall	.+868    	; 0x1908 <__itoa_ncheck>
    15a4:	80 91 cd 00 	lds	r24, 0x00CD	; 0x8000cd <mm>
    15a8:	4a e0       	ldi	r20, 0x0A	; 10
    15aa:	be 01       	movw	r22, r28
    15ac:	6c 5f       	subi	r22, 0xFC	; 252
    15ae:	7f 4f       	sbci	r23, 0xFF	; 255
    15b0:	90 e0       	ldi	r25, 0x00	; 0
    15b2:	aa d1       	rcall	.+852    	; 0x1908 <__itoa_ncheck>
    15b4:	80 91 cc 00 	lds	r24, 0x00CC	; 0x8000cc <ss>
    15b8:	4a e0       	ldi	r20, 0x0A	; 10
    15ba:	be 01       	movw	r22, r28
    15bc:	69 5f       	subi	r22, 0xF9	; 249
    15be:	7f 4f       	sbci	r23, 0xFF	; 255
    15c0:	90 e0       	ldi	r25, 0x00	; 0
    15c2:	a2 d1       	rcall	.+836    	; 0x1908 <__itoa_ncheck>
				
				itoa(hh,chaH, 10);
				itoa(mm,chaM, 10);
				itoa(ss,chaS, 10);
				
				if(hh < 10){
    15c4:	80 91 ce 00 	lds	r24, 0x00CE	; 0x8000ce <hh>
    15c8:	8a 30       	cpi	r24, 0x0A	; 10
    15ca:	48 f4       	brcc	.+18     	; 0x15de <main+0x764>
					strcpy(HMS, "0");
    15cc:	f7 01       	movw	r30, r14
    15ce:	91 82       	std	Z+1, r9	; 0x01
    15d0:	80 82       	st	Z, r8
					strcat(HMS,chaH);
    15d2:	be 01       	movw	r22, r28
    15d4:	6f 5f       	subi	r22, 0xFF	; 255
    15d6:	7f 4f       	sbci	r23, 0xFF	; 255
    15d8:	c7 01       	movw	r24, r14
    15da:	84 d1       	rcall	.+776    	; 0x18e4 <strcat>
    15dc:	05 c0       	rjmp	.+10     	; 0x15e8 <main+0x76e>
				}else
				strcpy(HMS,chaH);
    15de:	be 01       	movw	r22, r28
    15e0:	6f 5f       	subi	r22, 0xFF	; 255
    15e2:	7f 4f       	sbci	r23, 0xFF	; 255
    15e4:	c7 01       	movw	r24, r14
    15e6:	89 d1       	rcall	.+786    	; 0x18fa <strcpy>
				strcat(HMS,":");
    15e8:	f7 01       	movw	r30, r14
    15ea:	01 90       	ld	r0, Z+
    15ec:	00 20       	and	r0, r0
    15ee:	e9 f7       	brne	.-6      	; 0x15ea <main+0x770>
    15f0:	31 97       	sbiw	r30, 0x01	; 1
    15f2:	b1 82       	std	Z+1, r11	; 0x01
    15f4:	a0 82       	st	Z, r10
				
				if(mm < 10)
    15f6:	80 91 cd 00 	lds	r24, 0x00CD	; 0x8000cd <mm>
    15fa:	8a 30       	cpi	r24, 0x0A	; 10
    15fc:	38 f4       	brcc	.+14     	; 0x160c <main+0x792>
				strcat(HMS,"0");
    15fe:	f7 01       	movw	r30, r14
    1600:	01 90       	ld	r0, Z+
    1602:	00 20       	and	r0, r0
    1604:	e9 f7       	brne	.-6      	; 0x1600 <main+0x786>
    1606:	31 97       	sbiw	r30, 0x01	; 1
    1608:	91 82       	std	Z+1, r9	; 0x01
    160a:	80 82       	st	Z, r8
				strcat(HMS, chaM);
    160c:	be 01       	movw	r22, r28
    160e:	6c 5f       	subi	r22, 0xFC	; 252
    1610:	7f 4f       	sbci	r23, 0xFF	; 255
    1612:	c7 01       	movw	r24, r14
    1614:	67 d1       	rcall	.+718    	; 0x18e4 <strcat>
				strcat(HMS, ":");
    1616:	f7 01       	movw	r30, r14
    1618:	01 90       	ld	r0, Z+
    161a:	00 20       	and	r0, r0
    161c:	e9 f7       	brne	.-6      	; 0x1618 <main+0x79e>
    161e:	31 97       	sbiw	r30, 0x01	; 1
    1620:	b1 82       	std	Z+1, r11	; 0x01
    1622:	a0 82       	st	Z, r10
				
				if(ss < 10)
    1624:	80 91 cc 00 	lds	r24, 0x00CC	; 0x8000cc <ss>
    1628:	8a 30       	cpi	r24, 0x0A	; 10
    162a:	38 f4       	brcc	.+14     	; 0x163a <main+0x7c0>
				strcat(HMS,"0");
    162c:	f7 01       	movw	r30, r14
    162e:	01 90       	ld	r0, Z+
    1630:	00 20       	and	r0, r0
    1632:	e9 f7       	brne	.-6      	; 0x162e <main+0x7b4>
    1634:	31 97       	sbiw	r30, 0x01	; 1
    1636:	91 82       	std	Z+1, r9	; 0x01
    1638:	80 82       	st	Z, r8
				strcat(HMS, chaS);
    163a:	be 01       	movw	r22, r28
    163c:	69 5f       	subi	r22, 0xF9	; 249
    163e:	7f 4f       	sbci	r23, 0xFF	; 255
    1640:	c7 01       	movw	r24, r14
    1642:	50 d1       	rcall	.+672    	; 0x18e4 <strcat>
				
				// Draw Time
				clearBuff();
    1644:	02 db       	rcall	.-2556   	; 0xc4a <clearBuff>
				drawStringCentered(HMS);
    1646:	c7 01       	movw	r24, r14
    1648:	64 d9       	rcall	.-3384   	; 0x912 <drawStringCentered>
				updateScreen(DLINE_CENTER2);
    164a:	84 e0       	ldi	r24, 0x04	; 4
    164c:	bf da       	rcall	.-2690   	; 0xbcc <updateScreen>
				
				
				clearBuff();
    164e:	fd da       	rcall	.-2566   	; 0xc4a <clearBuff>
				drawString((alarmPos-1)*3*8+128/2-8,"--");
    1650:	80 91 c7 00 	lds	r24, 0x00C7	; 0x8000c7 <alarmPos>
    1654:	90 e0       	ldi	r25, 0x00	; 0
    1656:	01 97       	sbiw	r24, 0x01	; 1
    1658:	9c 01       	movw	r18, r24
    165a:	22 0f       	add	r18, r18
    165c:	33 1f       	adc	r19, r19
    165e:	82 0f       	add	r24, r18
    1660:	93 1f       	adc	r25, r19
    1662:	88 0f       	add	r24, r24
    1664:	99 1f       	adc	r25, r25
    1666:	88 0f       	add	r24, r24
    1668:	99 1f       	adc	r25, r25
    166a:	88 0f       	add	r24, r24
    166c:	99 1f       	adc	r25, r25
    166e:	66 e7       	ldi	r22, 0x76	; 118
    1670:	70 e0       	ldi	r23, 0x00	; 0
    1672:	c8 96       	adiw	r24, 0x38	; 56
    1674:	3b d9       	rcall	.-3466   	; 0x8ec <drawString>
				updateScreen(DLINE_5);
    1676:	85 e0       	ldi	r24, 0x05	; 5
    1678:	a9 da       	rcall	.-2734   	; 0xbcc <updateScreen>
    167a:	87 e9       	ldi	r24, 0x97	; 151
    167c:	9a e3       	ldi	r25, 0x3A	; 58
    167e:	01 97       	sbiw	r24, 0x01	; 1
    1680:	f1 f7       	brne	.-4      	; 0x167e <main+0x804>
    1682:	00 c0       	rjmp	.+0      	; 0x1684 <main+0x80a>
    1684:	00 00       	nop
		
		uint8_t blBtnMode = abs(dBtnMode - (~PINC & (1 << buttonMode)));
		dBtnMode = ~PINC & (1<<buttonMode);
			
		uint8_t blBtnAccept = abs(dBtnAccept - (~PINC & (1 << buttonAccept)));
		dBtnAccept = ~PINC & (1<<buttonAccept);
    1686:	65 2c       	mov	r6, r5
		// Buttons
		uint8_t blBtnUp = abs(dBtnUp - (~PINC & (1 << buttonUp)));
		dBtnUp = ~PINC & (1<<buttonUp);
		
		uint8_t blBtnDown = abs(dBtnDown - (~PINC & (1 << buttonDown)));
		dBtnDown = ~PINC & (1<<buttonDown);
    1688:	77 2d       	mov	r23, r7
			PORTB &= ~(1 << soundSpeaker);
		}
		
		// Buttons
		uint8_t blBtnUp = abs(dBtnUp - (~PINC & (1 << buttonUp)));
		dBtnUp = ~PINC & (1<<buttonUp);
    168a:	40 2f       	mov	r20, r16
		
		uint8_t blBtnDown = abs(dBtnDown - (~PINC & (1 << buttonDown)));
		dBtnDown = ~PINC & (1<<buttonDown);
		
		uint8_t blBtnMode = abs(dBtnMode - (~PINC & (1 << buttonMode)));
		dBtnMode = ~PINC & (1<<buttonMode);
    168c:	a1 2f       	mov	r26, r17
    168e:	38 cc       	rjmp	.-1936   	; 0xf00 <main+0x86>

00001690 <malloc>:
    1690:	0f 93       	push	r16
    1692:	1f 93       	push	r17
    1694:	cf 93       	push	r28
    1696:	df 93       	push	r29
    1698:	82 30       	cpi	r24, 0x02	; 2
    169a:	91 05       	cpc	r25, r1
    169c:	10 f4       	brcc	.+4      	; 0x16a2 <malloc+0x12>
    169e:	82 e0       	ldi	r24, 0x02	; 2
    16a0:	90 e0       	ldi	r25, 0x00	; 0
    16a2:	e0 91 61 01 	lds	r30, 0x0161	; 0x800161 <__flp>
    16a6:	f0 91 62 01 	lds	r31, 0x0162	; 0x800162 <__flp+0x1>
    16aa:	20 e0       	ldi	r18, 0x00	; 0
    16ac:	30 e0       	ldi	r19, 0x00	; 0
    16ae:	a0 e0       	ldi	r26, 0x00	; 0
    16b0:	b0 e0       	ldi	r27, 0x00	; 0
    16b2:	30 97       	sbiw	r30, 0x00	; 0
    16b4:	19 f1       	breq	.+70     	; 0x16fc <malloc+0x6c>
    16b6:	40 81       	ld	r20, Z
    16b8:	51 81       	ldd	r21, Z+1	; 0x01
    16ba:	02 81       	ldd	r16, Z+2	; 0x02
    16bc:	13 81       	ldd	r17, Z+3	; 0x03
    16be:	48 17       	cp	r20, r24
    16c0:	59 07       	cpc	r21, r25
    16c2:	c8 f0       	brcs	.+50     	; 0x16f6 <malloc+0x66>
    16c4:	84 17       	cp	r24, r20
    16c6:	95 07       	cpc	r25, r21
    16c8:	69 f4       	brne	.+26     	; 0x16e4 <malloc+0x54>
    16ca:	10 97       	sbiw	r26, 0x00	; 0
    16cc:	31 f0       	breq	.+12     	; 0x16da <malloc+0x4a>
    16ce:	12 96       	adiw	r26, 0x02	; 2
    16d0:	0c 93       	st	X, r16
    16d2:	12 97       	sbiw	r26, 0x02	; 2
    16d4:	13 96       	adiw	r26, 0x03	; 3
    16d6:	1c 93       	st	X, r17
    16d8:	27 c0       	rjmp	.+78     	; 0x1728 <malloc+0x98>
    16da:	00 93 61 01 	sts	0x0161, r16	; 0x800161 <__flp>
    16de:	10 93 62 01 	sts	0x0162, r17	; 0x800162 <__flp+0x1>
    16e2:	22 c0       	rjmp	.+68     	; 0x1728 <malloc+0x98>
    16e4:	21 15       	cp	r18, r1
    16e6:	31 05       	cpc	r19, r1
    16e8:	19 f0       	breq	.+6      	; 0x16f0 <malloc+0x60>
    16ea:	42 17       	cp	r20, r18
    16ec:	53 07       	cpc	r21, r19
    16ee:	18 f4       	brcc	.+6      	; 0x16f6 <malloc+0x66>
    16f0:	9a 01       	movw	r18, r20
    16f2:	bd 01       	movw	r22, r26
    16f4:	ef 01       	movw	r28, r30
    16f6:	df 01       	movw	r26, r30
    16f8:	f8 01       	movw	r30, r16
    16fa:	db cf       	rjmp	.-74     	; 0x16b2 <malloc+0x22>
    16fc:	21 15       	cp	r18, r1
    16fe:	31 05       	cpc	r19, r1
    1700:	f9 f0       	breq	.+62     	; 0x1740 <malloc+0xb0>
    1702:	28 1b       	sub	r18, r24
    1704:	39 0b       	sbc	r19, r25
    1706:	24 30       	cpi	r18, 0x04	; 4
    1708:	31 05       	cpc	r19, r1
    170a:	80 f4       	brcc	.+32     	; 0x172c <malloc+0x9c>
    170c:	8a 81       	ldd	r24, Y+2	; 0x02
    170e:	9b 81       	ldd	r25, Y+3	; 0x03
    1710:	61 15       	cp	r22, r1
    1712:	71 05       	cpc	r23, r1
    1714:	21 f0       	breq	.+8      	; 0x171e <malloc+0x8e>
    1716:	fb 01       	movw	r30, r22
    1718:	93 83       	std	Z+3, r25	; 0x03
    171a:	82 83       	std	Z+2, r24	; 0x02
    171c:	04 c0       	rjmp	.+8      	; 0x1726 <malloc+0x96>
    171e:	90 93 62 01 	sts	0x0162, r25	; 0x800162 <__flp+0x1>
    1722:	80 93 61 01 	sts	0x0161, r24	; 0x800161 <__flp>
    1726:	fe 01       	movw	r30, r28
    1728:	32 96       	adiw	r30, 0x02	; 2
    172a:	44 c0       	rjmp	.+136    	; 0x17b4 <malloc+0x124>
    172c:	fe 01       	movw	r30, r28
    172e:	e2 0f       	add	r30, r18
    1730:	f3 1f       	adc	r31, r19
    1732:	81 93       	st	Z+, r24
    1734:	91 93       	st	Z+, r25
    1736:	22 50       	subi	r18, 0x02	; 2
    1738:	31 09       	sbc	r19, r1
    173a:	39 83       	std	Y+1, r19	; 0x01
    173c:	28 83       	st	Y, r18
    173e:	3a c0       	rjmp	.+116    	; 0x17b4 <malloc+0x124>
    1740:	20 91 5f 01 	lds	r18, 0x015F	; 0x80015f <__brkval>
    1744:	30 91 60 01 	lds	r19, 0x0160	; 0x800160 <__brkval+0x1>
    1748:	23 2b       	or	r18, r19
    174a:	41 f4       	brne	.+16     	; 0x175c <malloc+0xcc>
    174c:	20 91 62 00 	lds	r18, 0x0062	; 0x800062 <__malloc_heap_start>
    1750:	30 91 63 00 	lds	r19, 0x0063	; 0x800063 <__malloc_heap_start+0x1>
    1754:	30 93 60 01 	sts	0x0160, r19	; 0x800160 <__brkval+0x1>
    1758:	20 93 5f 01 	sts	0x015F, r18	; 0x80015f <__brkval>
    175c:	20 91 60 00 	lds	r18, 0x0060	; 0x800060 <__data_start>
    1760:	30 91 61 00 	lds	r19, 0x0061	; 0x800061 <__data_start+0x1>
    1764:	21 15       	cp	r18, r1
    1766:	31 05       	cpc	r19, r1
    1768:	41 f4       	brne	.+16     	; 0x177a <malloc+0xea>
    176a:	2d b7       	in	r18, 0x3d	; 61
    176c:	3e b7       	in	r19, 0x3e	; 62
    176e:	40 91 64 00 	lds	r20, 0x0064	; 0x800064 <__malloc_margin>
    1772:	50 91 65 00 	lds	r21, 0x0065	; 0x800065 <__malloc_margin+0x1>
    1776:	24 1b       	sub	r18, r20
    1778:	35 0b       	sbc	r19, r21
    177a:	e0 91 5f 01 	lds	r30, 0x015F	; 0x80015f <__brkval>
    177e:	f0 91 60 01 	lds	r31, 0x0160	; 0x800160 <__brkval+0x1>
    1782:	e2 17       	cp	r30, r18
    1784:	f3 07       	cpc	r31, r19
    1786:	a0 f4       	brcc	.+40     	; 0x17b0 <malloc+0x120>
    1788:	2e 1b       	sub	r18, r30
    178a:	3f 0b       	sbc	r19, r31
    178c:	28 17       	cp	r18, r24
    178e:	39 07       	cpc	r19, r25
    1790:	78 f0       	brcs	.+30     	; 0x17b0 <malloc+0x120>
    1792:	ac 01       	movw	r20, r24
    1794:	4e 5f       	subi	r20, 0xFE	; 254
    1796:	5f 4f       	sbci	r21, 0xFF	; 255
    1798:	24 17       	cp	r18, r20
    179a:	35 07       	cpc	r19, r21
    179c:	48 f0       	brcs	.+18     	; 0x17b0 <malloc+0x120>
    179e:	4e 0f       	add	r20, r30
    17a0:	5f 1f       	adc	r21, r31
    17a2:	50 93 60 01 	sts	0x0160, r21	; 0x800160 <__brkval+0x1>
    17a6:	40 93 5f 01 	sts	0x015F, r20	; 0x80015f <__brkval>
    17aa:	81 93       	st	Z+, r24
    17ac:	91 93       	st	Z+, r25
    17ae:	02 c0       	rjmp	.+4      	; 0x17b4 <malloc+0x124>
    17b0:	e0 e0       	ldi	r30, 0x00	; 0
    17b2:	f0 e0       	ldi	r31, 0x00	; 0
    17b4:	cf 01       	movw	r24, r30
    17b6:	df 91       	pop	r29
    17b8:	cf 91       	pop	r28
    17ba:	1f 91       	pop	r17
    17bc:	0f 91       	pop	r16
    17be:	08 95       	ret

000017c0 <free>:
    17c0:	cf 93       	push	r28
    17c2:	df 93       	push	r29
    17c4:	00 97       	sbiw	r24, 0x00	; 0
    17c6:	09 f4       	brne	.+2      	; 0x17ca <free+0xa>
    17c8:	81 c0       	rjmp	.+258    	; 0x18cc <free+0x10c>
    17ca:	fc 01       	movw	r30, r24
    17cc:	32 97       	sbiw	r30, 0x02	; 2
    17ce:	13 82       	std	Z+3, r1	; 0x03
    17d0:	12 82       	std	Z+2, r1	; 0x02
    17d2:	a0 91 61 01 	lds	r26, 0x0161	; 0x800161 <__flp>
    17d6:	b0 91 62 01 	lds	r27, 0x0162	; 0x800162 <__flp+0x1>
    17da:	10 97       	sbiw	r26, 0x00	; 0
    17dc:	81 f4       	brne	.+32     	; 0x17fe <free+0x3e>
    17de:	20 81       	ld	r18, Z
    17e0:	31 81       	ldd	r19, Z+1	; 0x01
    17e2:	82 0f       	add	r24, r18
    17e4:	93 1f       	adc	r25, r19
    17e6:	20 91 5f 01 	lds	r18, 0x015F	; 0x80015f <__brkval>
    17ea:	30 91 60 01 	lds	r19, 0x0160	; 0x800160 <__brkval+0x1>
    17ee:	28 17       	cp	r18, r24
    17f0:	39 07       	cpc	r19, r25
    17f2:	51 f5       	brne	.+84     	; 0x1848 <free+0x88>
    17f4:	f0 93 60 01 	sts	0x0160, r31	; 0x800160 <__brkval+0x1>
    17f8:	e0 93 5f 01 	sts	0x015F, r30	; 0x80015f <__brkval>
    17fc:	67 c0       	rjmp	.+206    	; 0x18cc <free+0x10c>
    17fe:	ed 01       	movw	r28, r26
    1800:	20 e0       	ldi	r18, 0x00	; 0
    1802:	30 e0       	ldi	r19, 0x00	; 0
    1804:	ce 17       	cp	r28, r30
    1806:	df 07       	cpc	r29, r31
    1808:	40 f4       	brcc	.+16     	; 0x181a <free+0x5a>
    180a:	4a 81       	ldd	r20, Y+2	; 0x02
    180c:	5b 81       	ldd	r21, Y+3	; 0x03
    180e:	9e 01       	movw	r18, r28
    1810:	41 15       	cp	r20, r1
    1812:	51 05       	cpc	r21, r1
    1814:	f1 f0       	breq	.+60     	; 0x1852 <free+0x92>
    1816:	ea 01       	movw	r28, r20
    1818:	f5 cf       	rjmp	.-22     	; 0x1804 <free+0x44>
    181a:	d3 83       	std	Z+3, r29	; 0x03
    181c:	c2 83       	std	Z+2, r28	; 0x02
    181e:	40 81       	ld	r20, Z
    1820:	51 81       	ldd	r21, Z+1	; 0x01
    1822:	84 0f       	add	r24, r20
    1824:	95 1f       	adc	r25, r21
    1826:	c8 17       	cp	r28, r24
    1828:	d9 07       	cpc	r29, r25
    182a:	59 f4       	brne	.+22     	; 0x1842 <free+0x82>
    182c:	88 81       	ld	r24, Y
    182e:	99 81       	ldd	r25, Y+1	; 0x01
    1830:	84 0f       	add	r24, r20
    1832:	95 1f       	adc	r25, r21
    1834:	02 96       	adiw	r24, 0x02	; 2
    1836:	91 83       	std	Z+1, r25	; 0x01
    1838:	80 83       	st	Z, r24
    183a:	8a 81       	ldd	r24, Y+2	; 0x02
    183c:	9b 81       	ldd	r25, Y+3	; 0x03
    183e:	93 83       	std	Z+3, r25	; 0x03
    1840:	82 83       	std	Z+2, r24	; 0x02
    1842:	21 15       	cp	r18, r1
    1844:	31 05       	cpc	r19, r1
    1846:	29 f4       	brne	.+10     	; 0x1852 <free+0x92>
    1848:	f0 93 62 01 	sts	0x0162, r31	; 0x800162 <__flp+0x1>
    184c:	e0 93 61 01 	sts	0x0161, r30	; 0x800161 <__flp>
    1850:	3d c0       	rjmp	.+122    	; 0x18cc <free+0x10c>
    1852:	e9 01       	movw	r28, r18
    1854:	fb 83       	std	Y+3, r31	; 0x03
    1856:	ea 83       	std	Y+2, r30	; 0x02
    1858:	49 91       	ld	r20, Y+
    185a:	59 91       	ld	r21, Y+
    185c:	c4 0f       	add	r28, r20
    185e:	d5 1f       	adc	r29, r21
    1860:	ec 17       	cp	r30, r28
    1862:	fd 07       	cpc	r31, r29
    1864:	61 f4       	brne	.+24     	; 0x187e <free+0xbe>
    1866:	80 81       	ld	r24, Z
    1868:	91 81       	ldd	r25, Z+1	; 0x01
    186a:	84 0f       	add	r24, r20
    186c:	95 1f       	adc	r25, r21
    186e:	02 96       	adiw	r24, 0x02	; 2
    1870:	e9 01       	movw	r28, r18
    1872:	99 83       	std	Y+1, r25	; 0x01
    1874:	88 83       	st	Y, r24
    1876:	82 81       	ldd	r24, Z+2	; 0x02
    1878:	93 81       	ldd	r25, Z+3	; 0x03
    187a:	9b 83       	std	Y+3, r25	; 0x03
    187c:	8a 83       	std	Y+2, r24	; 0x02
    187e:	e0 e0       	ldi	r30, 0x00	; 0
    1880:	f0 e0       	ldi	r31, 0x00	; 0
    1882:	12 96       	adiw	r26, 0x02	; 2
    1884:	8d 91       	ld	r24, X+
    1886:	9c 91       	ld	r25, X
    1888:	13 97       	sbiw	r26, 0x03	; 3
    188a:	00 97       	sbiw	r24, 0x00	; 0
    188c:	19 f0       	breq	.+6      	; 0x1894 <free+0xd4>
    188e:	fd 01       	movw	r30, r26
    1890:	dc 01       	movw	r26, r24
    1892:	f7 cf       	rjmp	.-18     	; 0x1882 <free+0xc2>
    1894:	8d 91       	ld	r24, X+
    1896:	9c 91       	ld	r25, X
    1898:	11 97       	sbiw	r26, 0x01	; 1
    189a:	9d 01       	movw	r18, r26
    189c:	2e 5f       	subi	r18, 0xFE	; 254
    189e:	3f 4f       	sbci	r19, 0xFF	; 255
    18a0:	82 0f       	add	r24, r18
    18a2:	93 1f       	adc	r25, r19
    18a4:	20 91 5f 01 	lds	r18, 0x015F	; 0x80015f <__brkval>
    18a8:	30 91 60 01 	lds	r19, 0x0160	; 0x800160 <__brkval+0x1>
    18ac:	28 17       	cp	r18, r24
    18ae:	39 07       	cpc	r19, r25
    18b0:	69 f4       	brne	.+26     	; 0x18cc <free+0x10c>
    18b2:	30 97       	sbiw	r30, 0x00	; 0
    18b4:	29 f4       	brne	.+10     	; 0x18c0 <free+0x100>
    18b6:	10 92 62 01 	sts	0x0162, r1	; 0x800162 <__flp+0x1>
    18ba:	10 92 61 01 	sts	0x0161, r1	; 0x800161 <__flp>
    18be:	02 c0       	rjmp	.+4      	; 0x18c4 <free+0x104>
    18c0:	13 82       	std	Z+3, r1	; 0x03
    18c2:	12 82       	std	Z+2, r1	; 0x02
    18c4:	b0 93 60 01 	sts	0x0160, r27	; 0x800160 <__brkval+0x1>
    18c8:	a0 93 5f 01 	sts	0x015F, r26	; 0x80015f <__brkval>
    18cc:	df 91       	pop	r29
    18ce:	cf 91       	pop	r28
    18d0:	08 95       	ret

000018d2 <memcpy>:
    18d2:	fb 01       	movw	r30, r22
    18d4:	dc 01       	movw	r26, r24
    18d6:	02 c0       	rjmp	.+4      	; 0x18dc <memcpy+0xa>
    18d8:	01 90       	ld	r0, Z+
    18da:	0d 92       	st	X+, r0
    18dc:	41 50       	subi	r20, 0x01	; 1
    18de:	50 40       	sbci	r21, 0x00	; 0
    18e0:	d8 f7       	brcc	.-10     	; 0x18d8 <memcpy+0x6>
    18e2:	08 95       	ret

000018e4 <strcat>:
    18e4:	fb 01       	movw	r30, r22
    18e6:	dc 01       	movw	r26, r24
    18e8:	0d 90       	ld	r0, X+
    18ea:	00 20       	and	r0, r0
    18ec:	e9 f7       	brne	.-6      	; 0x18e8 <strcat+0x4>
    18ee:	11 97       	sbiw	r26, 0x01	; 1
    18f0:	01 90       	ld	r0, Z+
    18f2:	0d 92       	st	X+, r0
    18f4:	00 20       	and	r0, r0
    18f6:	e1 f7       	brne	.-8      	; 0x18f0 <strcat+0xc>
    18f8:	08 95       	ret

000018fa <strcpy>:
    18fa:	fb 01       	movw	r30, r22
    18fc:	dc 01       	movw	r26, r24
    18fe:	01 90       	ld	r0, Z+
    1900:	0d 92       	st	X+, r0
    1902:	00 20       	and	r0, r0
    1904:	e1 f7       	brne	.-8      	; 0x18fe <strcpy+0x4>
    1906:	08 95       	ret

00001908 <__itoa_ncheck>:
    1908:	bb 27       	eor	r27, r27
    190a:	4a 30       	cpi	r20, 0x0A	; 10
    190c:	31 f4       	brne	.+12     	; 0x191a <__itoa_ncheck+0x12>
    190e:	99 23       	and	r25, r25
    1910:	22 f4       	brpl	.+8      	; 0x191a <__itoa_ncheck+0x12>
    1912:	bd e2       	ldi	r27, 0x2D	; 45
    1914:	90 95       	com	r25
    1916:	81 95       	neg	r24
    1918:	9f 4f       	sbci	r25, 0xFF	; 255
    191a:	01 c0       	rjmp	.+2      	; 0x191e <__utoa_common>

0000191c <__utoa_ncheck>:
    191c:	bb 27       	eor	r27, r27

0000191e <__utoa_common>:
    191e:	fb 01       	movw	r30, r22
    1920:	55 27       	eor	r21, r21
    1922:	aa 27       	eor	r26, r26
    1924:	88 0f       	add	r24, r24
    1926:	99 1f       	adc	r25, r25
    1928:	aa 1f       	adc	r26, r26
    192a:	a4 17       	cp	r26, r20
    192c:	10 f0       	brcs	.+4      	; 0x1932 <__utoa_common+0x14>
    192e:	a4 1b       	sub	r26, r20
    1930:	83 95       	inc	r24
    1932:	50 51       	subi	r21, 0x10	; 16
    1934:	b9 f7       	brne	.-18     	; 0x1924 <__utoa_common+0x6>
    1936:	a0 5d       	subi	r26, 0xD0	; 208
    1938:	aa 33       	cpi	r26, 0x3A	; 58
    193a:	08 f0       	brcs	.+2      	; 0x193e <__utoa_common+0x20>
    193c:	a9 5d       	subi	r26, 0xD9	; 217
    193e:	a1 93       	st	Z+, r26
    1940:	00 97       	sbiw	r24, 0x00	; 0
    1942:	79 f7       	brne	.-34     	; 0x1922 <__utoa_common+0x4>
    1944:	b1 11       	cpse	r27, r1
    1946:	b1 93       	st	Z+, r27
    1948:	11 92       	st	Z+, r1
    194a:	cb 01       	movw	r24, r22
    194c:	00 c0       	rjmp	.+0      	; 0x194e <strrev>

0000194e <strrev>:
    194e:	dc 01       	movw	r26, r24
    1950:	fc 01       	movw	r30, r24
    1952:	67 2f       	mov	r22, r23
    1954:	71 91       	ld	r23, Z+
    1956:	77 23       	and	r23, r23
    1958:	e1 f7       	brne	.-8      	; 0x1952 <strrev+0x4>
    195a:	32 97       	sbiw	r30, 0x02	; 2
    195c:	04 c0       	rjmp	.+8      	; 0x1966 <strrev+0x18>
    195e:	7c 91       	ld	r23, X
    1960:	6d 93       	st	X+, r22
    1962:	70 83       	st	Z, r23
    1964:	62 91       	ld	r22, -Z
    1966:	ae 17       	cp	r26, r30
    1968:	bf 07       	cpc	r27, r31
    196a:	c8 f3       	brcs	.-14     	; 0x195e <strrev+0x10>
    196c:	08 95       	ret

0000196e <_exit>:
    196e:	f8 94       	cli

00001970 <__stop_program>:
    1970:	ff cf       	rjmp	.-2      	; 0x1970 <__stop_program>
